
========================================================================

** ELF Header Information

    File Name: .\Objects\PD_TEST_S5.axf

    Machine class: ELFCLASS32 (32-bit)
    Data encoding: ELFDATA2LSB (Little endian)
    Header version: EV_CURRENT (Current version)
    Operating System ABI: none
    ABI Version: 0
    File Type: ET_EXEC (Executable) (2)
    Machine: EM_ARM (ARM)

    Image Entry point: 0x000000f5
    Flags: EF_ARM_HASENTRY + EF_ARM_ABI_FLOAT_SOFT (0x05000202)

    ARM ELF revision: 5 (ABI version 2)

    Conforms to Soft float procedure-call standard

    Built with
    Component: ARM Compiler 5.06 update 7 (build 960) Tool: armasm [4d35fa]
    Component: ARM Compiler 5.06 update 7 (build 960) Tool: armlink [4d3601]

    Header size: 52 bytes (0x34)
    Program header entry size: 32 bytes (0x20)
    Section header entry size: 40 bytes (0x28)

    Program header entries: 1
    Section header entries: 16

    Program header offset: 466976 (0x00072020)
    Section header offset: 467008 (0x00072040)

    Section header string table index: 15

========================================================================

** Program header #0 (PT_LOAD) [PF_X + PF_W + PF_R + PF_ARM_ENTRY]
    Size : 27176 bytes (13772 bytes in file)
    Virtual address: 0x00000000 (Alignment 8)


========================================================================

** Section #1 'ER_RO' (SHT_PROGBITS) [SHF_ALLOC + SHF_EXECINSTR]
    Size   : 13576 bytes (alignment 4)
    Address: 0x00000000

    $d.realdata
    RESET
    __Vectors
        0x00000000:    20003520     5.     DCD    536884512
        0x00000004:    000000f5    ....    DCD    245
        0x00000008:    00000115    ....    DCD    277
        0x0000000c:    000000d9    ....    DCD    217
        0x00000010:    00000000    ....    DCD    0
        0x00000014:    00000000    ....    DCD    0
        0x00000018:    00000000    ....    DCD    0
        0x0000001c:    00000000    ....    DCD    0
        0x00000020:    00000000    ....    DCD    0
        0x00000024:    00000000    ....    DCD    0
        0x00000028:    00000000    ....    DCD    0
        0x0000002c:    00000119    ....    DCD    281
        0x00000030:    00000000    ....    DCD    0
        0x00000034:    00000000    ....    DCD    0
        0x00000038:    0000011b    ....    DCD    283
        0x0000003c:    000022a9    ."..    DCD    8873
        0x00000040:    0000011f    ....    DCD    287
        0x00000044:    0000011f    ....    DCD    287
        0x00000048:    0000011f    ....    DCD    287
        0x0000004c:    0000011f    ....    DCD    287
        0x00000050:    0000011f    ....    DCD    287
        0x00000054:    0000011f    ....    DCD    287
        0x00000058:    0000011f    ....    DCD    287
        0x0000005c:    0000011f    ....    DCD    287
        0x00000060:    0000011f    ....    DCD    287
        0x00000064:    0000011f    ....    DCD    287
        0x00000068:    0000011f    ....    DCD    287
        0x0000006c:    0000011f    ....    DCD    287
        0x00000070:    000025f1    .%..    DCD    9713
        0x00000074:    00002601    .&..    DCD    9729
        0x00000078:    0000011f    ....    DCD    287
        0x0000007c:    0000011f    ....    DCD    287
        0x00000080:    0000011f    ....    DCD    287
        0x00000084:    0000011f    ....    DCD    287
        0x00000088:    0000011f    ....    DCD    287
        0x0000008c:    0000011f    ....    DCD    287
        0x00000090:    00000621    !...    DCD    1569
        0x00000094:    00000729    )...    DCD    1833
        0x00000098:    0000011f    ....    DCD    287
        0x0000009c:    0000011f    ....    DCD    287
        0x000000a0:    0000011f    ....    DCD    287
        0x000000a4:    0000011f    ....    DCD    287
        0x000000a8:    0000011f    ....    DCD    287
        0x000000ac:    0000011f    ....    DCD    287
        0x000000b0:    0000011f    ....    DCD    287
        0x000000b4:    0000011f    ....    DCD    287
        0x000000b8:    0000011f    ....    DCD    287
        0x000000bc:    0000011f    ....    DCD    287
    $t
    .ARM.Collect$$$$00000000
    .ARM.Collect$$$$00000001
    __main
    _main_stk
        0x000000c0:    4804        .H      LDR      r0,__lit__00000000 ; [0xd4] = 0x20003520
        0x000000c2:    4685        .F      MOV      sp,r0
    .ARM.Collect$$$$00000004
    _main_scatterload
        0x000000c4:    f000f8dc    ....    BL       __scatterload ; 0x280
    .ARM.Collect$$$$00000008
    .ARM.Collect$$$$0000000A
    .ARM.Collect$$$$0000000B
    __main_after_scatterload
    _main_clock
    _main_cpp_init
    _main_init
        0x000000c8:    4800        .H      LDR      r0,[pc,#0] ; [0xcc] = 0x2f5d
        0x000000ca:    4700        .G      BX       r0
    $d
        0x000000cc:    00002f5d    ]/..    DCD    12125
    $t
    .ARM.Collect$$$$0000000E
    __rt_lib_shutdown_fini
        0x000000d0:    46c0        .F      MOV      r8,r8
        0x000000d2:    46c0        .F      MOV      r8,r8
    $d
    .ARM.Collect$$$$00002712
    __lit__00000000
    .ARM.Collect$$$$0000000F
    .ARM.Collect$$$$00000011
    __rt_final_cpp
    __rt_final_exit
        0x000000d4:    20003520     5.     DCD    536884512
    $t
    .emb_text
    HardFault_Handler
        0x000000d8:    2004        .       MOVS     r0,#4
        0x000000da:    4671        qF      MOV      r1,lr
        0x000000dc:    4208        .B      TST      r0,r1
        0x000000de:    d002        ..      BEQ      0xe6 ; HardFault_Handler + 14
        0x000000e0:    f3ef8009    ....    MRS      r0,PSP
        0x000000e4:    e001        ..      B        0xea ; HardFault_Handler + 18
        0x000000e6:    f3ef8008    ....    MRS      r0,MSP
        0x000000ea:    4671        qF      MOV      r1,lr
        0x000000ec:    4a00        .J      LDR      r2,[pc,#0] ; [0xf0] = 0x1c65
        0x000000ee:    4710        .G      BX       r2
    $d
        0x000000f0:    00001c65    e...    DCD    7269
    $t
    .text
    Reset_Handler
        0x000000f4:    480a        .H      LDR      r0,[pc,#40] ; [0x120] = 0x50000100
        0x000000f6:    490b        .I      LDR      r1,[pc,#44] ; [0x124] = 0x59
        0x000000f8:    6001        .`      STR      r1,[r0,#0]
        0x000000fa:    490b        .I      LDR      r1,[pc,#44] ; [0x128] = 0x16
        0x000000fc:    6001        .`      STR      r1,[r0,#0]
        0x000000fe:    490b        .I      LDR      r1,[pc,#44] ; [0x12c] = 0x88
        0x00000100:    6001        .`      STR      r1,[r0,#0]
        0x00000102:    4a0b        .J      LDR      r2,[pc,#44] ; [0x130] = 0x50000024
        0x00000104:    490b        .I      LDR      r1,[pc,#44] ; [0x134] = 0x5aa5
        0x00000106:    6011        .`      STR      r1,[r2,#0]
        0x00000108:    2100        .!      MOVS     r1,#0
        0x0000010a:    6001        .`      STR      r1,[r0,#0]
        0x0000010c:    480a        .H      LDR      r0,[pc,#40] ; [0x138] = 0x24b5
        0x0000010e:    4780        .G      BLX      r0
        0x00000110:    480a        .H      LDR      r0,[pc,#40] ; [0x13c] = 0xc1
        0x00000112:    4700        .G      BX       r0
    NMI_Handler
        0x00000114:    e7fe        ..      B        NMI_Handler ; 0x114
        0x00000116:    e7fe        ..      B        0x116 ; NMI_Handler + 2
    SVC_Handler
        0x00000118:    e7fe        ..      B        SVC_Handler ; 0x118
    PendSV_Handler
        0x0000011a:    e7fe        ..      B        PendSV_Handler ; 0x11a
        0x0000011c:    e7fe        ..      B        0x11c ; PendSV_Handler + 2
    Default_Handler
    ACMP_IRQHandler
    ADC_IRQHandler
    BOD_IRQHandler
    EINT0_IRQHandler
    EINT1_IRQHandler
    GPAB_IRQHandler
    GPCDEF_IRQHandler
    I2C0_IRQHandler
    I2C1_IRQHandler
    I2S_IRQHandler
    PDMA_IRQHandler
    PS2_IRQHandler
    PWMA_IRQHandler
    PWMB_IRQHandler
    PWRWU_IRQHandler
    RTC_IRQHandler
    SC012_IRQHandler
    SPI0_IRQHandler
    SPI1_IRQHandler
    SPI2_IRQHandler
    SPI3_IRQHandler
    TMR0_IRQHandler
    TMR1_IRQHandler
    TMR2_IRQHandler
    TMR3_IRQHandler
    USBD_IRQHandler
    WDT_IRQHandler
        0x0000011e:    e7fe        ..      B        Default_Handler ; 0x11e
    $d
        0x00000120:    50000100    ...P    DCD    1342177536
        0x00000124:    00000059    Y...    DCD    89
        0x00000128:    00000016    ....    DCD    22
        0x0000012c:    00000088    ....    DCD    136
        0x00000130:    50000024    $..P    DCD    1342177316
        0x00000134:    00005aa5    .Z..    DCD    23205
        0x00000138:    000024b5    .$..    DCD    9397
        0x0000013c:    000000c1    ....    DCD    193
    $t
    .text
    __aeabi_uidiv
    __aeabi_uidivmod
        0x00000140:    b530        0.      PUSH     {r4,r5,lr}
        0x00000142:    460b        .F      MOV      r3,r1
        0x00000144:    4601        .F      MOV      r1,r0
        0x00000146:    2000        .       MOVS     r0,#0
        0x00000148:    2220         "      MOVS     r2,#0x20
        0x0000014a:    2401        .$      MOVS     r4,#1
        0x0000014c:    e009        ..      B        0x162 ; __aeabi_uidiv + 34
        0x0000014e:    460d        .F      MOV      r5,r1
        0x00000150:    40d5        .@      LSRS     r5,r5,r2
        0x00000152:    429d        .B      CMP      r5,r3
        0x00000154:    d305        ..      BCC      0x162 ; __aeabi_uidiv + 34
        0x00000156:    461d        .F      MOV      r5,r3
        0x00000158:    4095        .@      LSLS     r5,r5,r2
        0x0000015a:    1b49        I.      SUBS     r1,r1,r5
        0x0000015c:    4625        %F      MOV      r5,r4
        0x0000015e:    4095        .@      LSLS     r5,r5,r2
        0x00000160:    1940        @.      ADDS     r0,r0,r5
        0x00000162:    4615        .F      MOV      r5,r2
        0x00000164:    1e52        R.      SUBS     r2,r2,#1
        0x00000166:    2d00        .-      CMP      r5,#0
        0x00000168:    dcf1        ..      BGT      0x14e ; __aeabi_uidiv + 14
        0x0000016a:    bd30        0.      POP      {r4,r5,pc}
    .text
    __aeabi_idiv
    __aeabi_idivmod
        0x0000016c:    b570        p.      PUSH     {r4-r6,lr}
        0x0000016e:    2400        .$      MOVS     r4,#0
        0x00000170:    4625        %F      MOV      r5,r4
        0x00000172:    2800        .(      CMP      r0,#0
        0x00000174:    da01        ..      BGE      0x17a ; __aeabi_idiv + 14
        0x00000176:    2401        .$      MOVS     r4,#1
        0x00000178:    4240        @B      RSBS     r0,r0,#0
        0x0000017a:    2900        .)      CMP      r1,#0
        0x0000017c:    da01        ..      BGE      0x182 ; __aeabi_idiv + 22
        0x0000017e:    2501        .%      MOVS     r5,#1
        0x00000180:    4249        IB      RSBS     r1,r1,#0
        0x00000182:    f7ffffdd    ....    BL       __aeabi_uidiv ; 0x140
        0x00000186:    42ac        .B      CMP      r4,r5
        0x00000188:    d000        ..      BEQ      0x18c ; __aeabi_idiv + 32
        0x0000018a:    4240        @B      RSBS     r0,r0,#0
        0x0000018c:    2c00        .,      CMP      r4,#0
        0x0000018e:    d000        ..      BEQ      0x192 ; __aeabi_idiv + 38
        0x00000190:    4249        IB      RSBS     r1,r1,#0
        0x00000192:    bd70        p.      POP      {r4-r6,pc}
    .text
    __aeabi_uldivmod
        0x00000194:    b5f0        ..      PUSH     {r4-r7,lr}
        0x00000196:    b41f        ..      PUSH     {r0-r4}
        0x00000198:    4606        .F      MOV      r6,r0
        0x0000019a:    2000        .       MOVS     r0,#0
        0x0000019c:    b082        ..      SUB      sp,sp,#8
        0x0000019e:    4605        .F      MOV      r5,r0
        0x000001a0:    2440        @$      MOVS     r4,#0x40
        0x000001a2:    9101        ..      STR      r1,[sp,#4]
        0x000001a4:    9000        ..      STR      r0,[sp,#0]
        0x000001a6:    e01b        ..      B        0x1e0 ; __aeabi_uldivmod + 76
        0x000001a8:    9901        ..      LDR      r1,[sp,#4]
        0x000001aa:    4622        "F      MOV      r2,r4
        0x000001ac:    460f        .F      MOV      r7,r1
        0x000001ae:    4630        0F      MOV      r0,r6
        0x000001b0:    f000f854    ..T.    BL       __aeabi_llsr ; 0x25c
        0x000001b4:    9a04        ..      LDR      r2,[sp,#0x10]
        0x000001b6:    9b05        ..      LDR      r3,[sp,#0x14]
        0x000001b8:    1a80        ..      SUBS     r0,r0,r2
        0x000001ba:    4199        .A      SBCS     r1,r1,r3
        0x000001bc:    d310        ..      BCC      0x1e0 ; __aeabi_uldivmod + 76
        0x000001be:    4610        .F      MOV      r0,r2
        0x000001c0:    4619        .F      MOV      r1,r3
        0x000001c2:    4622        "F      MOV      r2,r4
        0x000001c4:    f000f83a    ..:.    BL       __aeabi_llsl ; 0x23c
        0x000001c8:    1a36        6.      SUBS     r6,r6,r0
        0x000001ca:    418f        .A      SBCS     r7,r7,r1
        0x000001cc:    9701        ..      STR      r7,[sp,#4]
        0x000001ce:    4622        "F      MOV      r2,r4
        0x000001d0:    2001        .       MOVS     r0,#1
        0x000001d2:    2100        .!      MOVS     r1,#0
        0x000001d4:    9f00        ..      LDR      r7,[sp,#0]
        0x000001d6:    f000f831    ..1.    BL       __aeabi_llsl ; 0x23c
        0x000001da:    1838        8.      ADDS     r0,r7,r0
        0x000001dc:    414d        MA      ADCS     r5,r5,r1
        0x000001de:    9000        ..      STR      r0,[sp,#0]
        0x000001e0:    4620         F      MOV      r0,r4
        0x000001e2:    1e64        d.      SUBS     r4,r4,#1
        0x000001e4:    2800        .(      CMP      r0,#0
        0x000001e6:    dcdf        ..      BGT      0x1a8 ; __aeabi_uldivmod + 20
        0x000001e8:    9b01        ..      LDR      r3,[sp,#4]
        0x000001ea:    9800        ..      LDR      r0,[sp,#0]
        0x000001ec:    4629        )F      MOV      r1,r5
        0x000001ee:    4632        2F      MOV      r2,r6
        0x000001f0:    b007        ..      ADD      sp,sp,#0x1c
        0x000001f2:    bdf0        ..      POP      {r4-r7,pc}
    .text
    __aeabi_memcpy
    __aeabi_memcpy4
    __aeabi_memcpy8
        0x000001f4:    4603        .F      MOV      r3,r0
        0x000001f6:    430b        .C      ORRS     r3,r3,r1
        0x000001f8:    079b        ..      LSLS     r3,r3,#30
        0x000001fa:    d003        ..      BEQ      0x204 ; __aeabi_memcpy + 16
        0x000001fc:    e009        ..      B        0x212 ; __aeabi_memcpy + 30
        0x000001fe:    c908        ..      LDM      r1!,{r3}
        0x00000200:    1f12        ..      SUBS     r2,r2,#4
        0x00000202:    c008        ..      STM      r0!,{r3}
        0x00000204:    2a04        .*      CMP      r2,#4
        0x00000206:    d2fa        ..      BCS      0x1fe ; __aeabi_memcpy + 10
        0x00000208:    e003        ..      B        0x212 ; __aeabi_memcpy + 30
        0x0000020a:    780b        .x      LDRB     r3,[r1,#0]
        0x0000020c:    7003        .p      STRB     r3,[r0,#0]
        0x0000020e:    1c40        @.      ADDS     r0,r0,#1
        0x00000210:    1c49        I.      ADDS     r1,r1,#1
        0x00000212:    1e52        R.      SUBS     r2,r2,#1
        0x00000214:    d2f9        ..      BCS      0x20a ; __aeabi_memcpy + 22
        0x00000216:    4770        pG      BX       lr
    .text
    __aeabi_memset
    __aeabi_memset4
    __aeabi_memset8
        0x00000218:    b2d2        ..      UXTB     r2,r2
        0x0000021a:    e001        ..      B        0x220 ; __aeabi_memset + 8
        0x0000021c:    7002        .p      STRB     r2,[r0,#0]
        0x0000021e:    1c40        @.      ADDS     r0,r0,#1
        0x00000220:    1e49        I.      SUBS     r1,r1,#1
        0x00000222:    d2fb        ..      BCS      0x21c ; __aeabi_memset + 4
        0x00000224:    4770        pG      BX       lr
    __aeabi_memclr
    __aeabi_memclr4
    __aeabi_memclr8
        0x00000226:    2200        ."      MOVS     r2,#0
        0x00000228:    e7f6        ..      B        __aeabi_memset ; 0x218
    _memset$wrapper
        0x0000022a:    b510        ..      PUSH     {r4,lr}
        0x0000022c:    4613        .F      MOV      r3,r2
        0x0000022e:    460a        .F      MOV      r2,r1
        0x00000230:    4604        .F      MOV      r4,r0
        0x00000232:    4619        .F      MOV      r1,r3
        0x00000234:    f7fffff0    ....    BL       __aeabi_memset ; 0x218
        0x00000238:    4620         F      MOV      r0,r4
        0x0000023a:    bd10        ..      POP      {r4,pc}
    .text
    __aeabi_llsl
    _ll_shift_l
        0x0000023c:    b510        ..      PUSH     {r4,lr}
        0x0000023e:    2a20         *      CMP      r2,#0x20
        0x00000240:    db04        ..      BLT      0x24c ; __aeabi_llsl + 16
        0x00000242:    4601        .F      MOV      r1,r0
        0x00000244:    3a20         :      SUBS     r2,r2,#0x20
        0x00000246:    4091        .@      LSLS     r1,r1,r2
        0x00000248:    2000        .       MOVS     r0,#0
        0x0000024a:    bd10        ..      POP      {r4,pc}
        0x0000024c:    4091        .@      LSLS     r1,r1,r2
        0x0000024e:    2320         #      MOVS     r3,#0x20
        0x00000250:    1a9c        ..      SUBS     r4,r3,r2
        0x00000252:    4603        .F      MOV      r3,r0
        0x00000254:    40e3        .@      LSRS     r3,r3,r4
        0x00000256:    4319        .C      ORRS     r1,r1,r3
        0x00000258:    4090        .@      LSLS     r0,r0,r2
        0x0000025a:    bd10        ..      POP      {r4,pc}
    .text
    __aeabi_llsr
    _ll_ushift_r
        0x0000025c:    b510        ..      PUSH     {r4,lr}
        0x0000025e:    2a20         *      CMP      r2,#0x20
        0x00000260:    db04        ..      BLT      0x26c ; __aeabi_llsr + 16
        0x00000262:    4608        .F      MOV      r0,r1
        0x00000264:    3a20         :      SUBS     r2,r2,#0x20
        0x00000266:    40d0        .@      LSRS     r0,r0,r2
        0x00000268:    2100        .!      MOVS     r1,#0
        0x0000026a:    bd10        ..      POP      {r4,pc}
        0x0000026c:    460b        .F      MOV      r3,r1
        0x0000026e:    40d3        .@      LSRS     r3,r3,r2
        0x00000270:    40d0        .@      LSRS     r0,r0,r2
        0x00000272:    2420         $      MOVS     r4,#0x20
        0x00000274:    1aa2        ..      SUBS     r2,r4,r2
        0x00000276:    4091        .@      LSLS     r1,r1,r2
        0x00000278:    4308        .C      ORRS     r0,r0,r1
        0x0000027a:    4619        .F      MOV      r1,r3
        0x0000027c:    bd10        ..      POP      {r4,pc}
        0x0000027e:    0000        ..      MOVS     r0,r0
    .text
    __scatterload
    __scatterload_rt2
        0x00000280:    4c06        .L      LDR      r4,[pc,#24] ; [0x29c] = 0x34e8
        0x00000282:    2501        .%      MOVS     r5,#1
        0x00000284:    4e06        .N      LDR      r6,[pc,#24] ; [0x2a0] = 0x3508
        0x00000286:    e005        ..      B        0x294 ; __scatterload + 20
        0x00000288:    68e3        .h      LDR      r3,[r4,#0xc]
        0x0000028a:    cc07        ..      LDM      r4!,{r0-r2}
        0x0000028c:    432b        +C      ORRS     r3,r3,r5
        0x0000028e:    3c0c        .<      SUBS     r4,r4,#0xc
        0x00000290:    4798        .G      BLX      r3
        0x00000292:    3410        .4      ADDS     r4,r4,#0x10
        0x00000294:    42b4        .B      CMP      r4,r6
        0x00000296:    d3f7        ..      BCC      0x288 ; __scatterload + 8
        0x00000298:    f7ffff16    ....    BL       __main_after_scatterload ; 0xc8
    $d
        0x0000029c:    000034e8    .4..    DCD    13544
        0x000002a0:    00003508    .5..    DCD    13576
    $t
    i.ADC_AvgSampleStart
    ADC_AvgSampleStart
        0x000002a4:    b508        ..      PUSH     {r3,lr}
        0x000002a6:    480b        .H      LDR      r0,[pc,#44] ; [0x2d4] = 0x2000007c
        0x000002a8:    7800        .x      LDRB     r0,[r0,#0]
        0x000002aa:    2805        .(      CMP      r0,#5
        0x000002ac:    db10        ..      BLT      0x2d0 ; ADC_AvgSampleStart + 44
        0x000002ae:    f001ff71    ..q.    BL       SoftTimerAlloc ; 0x2194
        0x000002b2:    4908        .I      LDR      r1,[pc,#32] ; [0x2d4] = 0x2000007c
        0x000002b4:    7008        .p      STRB     r0,[r1,#0]
        0x000002b6:    4608        .F      MOV      r0,r1
        0x000002b8:    7800        .x      LDRB     r0,[r0,#0]
        0x000002ba:    2805        .(      CMP      r0,#5
        0x000002bc:    da08        ..      BGE      0x2d0 ; ADC_AvgSampleStart + 44
        0x000002be:    2000        .       MOVS     r0,#0
        0x000002c0:    4b05        .K      LDR      r3,[pc,#20] ; [0x2d8] = 0x421
        0x000002c2:    2201        ."      MOVS     r2,#1
        0x000002c4:    4611        .F      MOV      r1,r2
        0x000002c6:    9000        ..      STR      r0,[sp,#0]
        0x000002c8:    4802        .H      LDR      r0,[pc,#8] ; [0x2d4] = 0x2000007c
        0x000002ca:    7800        .x      LDRB     r0,[r0,#0]
        0x000002cc:    f001ffa0    ....    BL       SoftTimerStart ; 0x2210
        0x000002d0:    bd08        ..      POP      {r3,pc}
    $d
        0x000002d2:    0000        ..      DCW    0
        0x000002d4:    2000007c    |..     DCD    536871036
        0x000002d8:    00000421    !...    DCD    1057
    $t
    i.ADC_GetAvgSampleData
    ADC_GetAvgSampleData
        0x000002dc:    4601        .F      MOV      r1,r0
        0x000002de:    b672        r.      CPSID    i
        0x000002e0:    2212        ."      MOVS     r2,#0x12
        0x000002e2:    434a        JC      MULS     r2,r1,r2
        0x000002e4:    4b02        .K      LDR      r3,[pc,#8] ; [0x2f0] = 0x20002970
        0x000002e6:    18d2        ..      ADDS     r2,r2,r3
        0x000002e8:    8a10        ..      LDRH     r0,[r2,#0x10]
        0x000002ea:    b662        b.      CPSIE    i
        0x000002ec:    4770        pG      BX       lr
    $d
        0x000002ee:    0000        ..      DCW    0
        0x000002f0:    20002970    p).     DCD    536881520
    $t
    i.ADC_GetChanVolt
    ADC_GetChanVolt
        0x000002f4:    b570        p.      PUSH     {r4-r6,lr}
        0x000002f6:    4605        .F      MOV      r5,r0
        0x000002f8:    2d08        .-      CMP      r5,#8
        0x000002fa:    dd01        ..      BLE      0x300 ; ADC_GetChanVolt + 12
        0x000002fc:    2000        .       MOVS     r0,#0
        0x000002fe:    bd70        p.      POP      {r4-r6,pc}
        0x00000300:    4628        (F      MOV      r0,r5
        0x00000302:    f7ffffeb    ....    BL       ADC_GetAvgSampleData ; 0x2dc
        0x00000306:    4604        .F      MOV      r4,r0
        0x00000308:    4915        .I      LDR      r1,[pc,#84] ; [0x360] = 0xce4
        0x0000030a:    4361        aC      MULS     r1,r4,r1
        0x0000030c:    4608        .F      MOV      r0,r1
        0x0000030e:    4915        .I      LDR      r1,[pc,#84] ; [0x364] = 0xfff
        0x00000310:    f7ffff16    ....    BL       __aeabi_uidiv ; 0x140
        0x00000314:    4604        .F      MOV      r4,r0
        0x00000316:    002b        +.      MOVS     r3,r5
        0x00000318:    f002fb42    ..B.    BL       __ARM_common_switch8 ; 0x29a0
    $d
        0x0000031c:    09070508    ....    DCD    151454984
        0x00000320:    14110e0b    ....    DCD    336662027
        0x00000324:    1916        ..      DCW    6422
    $t
        0x00000326:    0064        d.      LSLS     r4,r4,#1
        0x00000328:    e013        ..      B        0x352 ; ADC_GetChanVolt + 94
        0x0000032a:    0064        d.      LSLS     r4,r4,#1
        0x0000032c:    e011        ..      B        0x352 ; ADC_GetChanVolt + 94
        0x0000032e:    0064        d.      LSLS     r4,r4,#1
        0x00000330:    e00f        ..      B        0x352 ; ADC_GetChanVolt + 94
        0x00000332:    2006        .       MOVS     r0,#6
        0x00000334:    4344        DC      MULS     r4,r0,r4
        0x00000336:    e00c        ..      B        0x352 ; ADC_GetChanVolt + 94
        0x00000338:    2006        .       MOVS     r0,#6
        0x0000033a:    4344        DC      MULS     r4,r0,r4
        0x0000033c:    e009        ..      B        0x352 ; ADC_GetChanVolt + 94
        0x0000033e:    2006        .       MOVS     r0,#6
        0x00000340:    4344        DC      MULS     r4,r0,r4
        0x00000342:    e006        ..      B        0x352 ; ADC_GetChanVolt + 94
        0x00000344:    bf00        ..      NOP      
        0x00000346:    e004        ..      B        0x352 ; ADC_GetChanVolt + 94
        0x00000348:    200a        .       MOVS     r0,#0xa
        0x0000034a:    4344        DC      MULS     r4,r0,r4
        0x0000034c:    e001        ..      B        0x352 ; ADC_GetChanVolt + 94
        0x0000034e:    2400        .$      MOVS     r4,#0
        0x00000350:    bf00        ..      NOP      
        0x00000352:    bf00        ..      NOP      
        0x00000354:    4804        .H      LDR      r0,[pc,#16] ; [0x368] = 0xffff
        0x00000356:    4284        .B      CMP      r4,r0
        0x00000358:    d900        ..      BLS      0x35c ; ADC_GetChanVolt + 104
        0x0000035a:    4604        .F      MOV      r4,r0
        0x0000035c:    4620         F      MOV      r0,r4
        0x0000035e:    e7ce        ..      B        0x2fe ; ADC_GetChanVolt + 10
    $d
        0x00000360:    00000ce4    ....    DCD    3300
        0x00000364:    00000fff    ....    DCD    4095
        0x00000368:    0000ffff    ....    DCD    65535
    $t
    i.ADC_Open
    ADC_Open
        0x0000036c:    b530        0.      PUSH     {r4,r5,lr}
        0x0000036e:    6a04        .j      LDR      r4,[r0,#0x20]
        0x00000370:    4d05        .M      LDR      r5,[pc,#20] ; [0x388] = 0xfffffbf3
        0x00000372:    402c        ,@      ANDS     r4,r4,r5
        0x00000374:    430c        .C      ORRS     r4,r4,r1
        0x00000376:    4314        .C      ORRS     r4,r4,r2
        0x00000378:    6204        .b      STR      r4,[r0,#0x20]
        0x0000037a:    6a44        Dj      LDR      r4,[r0,#0x24]
        0x0000037c:    0a24        $.      LSRS     r4,r4,#8
        0x0000037e:    0224        $.      LSLS     r4,r4,#8
        0x00000380:    431c        .C      ORRS     r4,r4,r3
        0x00000382:    6244        Db      STR      r4,[r0,#0x24]
        0x00000384:    bd30        0.      POP      {r4,r5,pc}
    $d
        0x00000386:    0000        ..      DCW    0
        0x00000388:    fffffbf3    ....    DCD    4294966259
    $t
    i.ADC_SampleInit
    ADC_SampleInit
        0x0000038c:    b510        ..      PUSH     {r4,lr}
        0x0000038e:    4820         H      LDR      r0,[pc,#128] ; [0x410] = 0x50004000
        0x00000390:    6840        @h      LDR      r0,[r0,#4]
        0x00000392:    217f        .!      MOVS     r1,#0x7f
        0x00000394:    0409        ..      LSLS     r1,r1,#16
        0x00000396:    4308        .C      ORRS     r0,r0,r1
        0x00000398:    491d        .I      LDR      r1,[pc,#116] ; [0x410] = 0x50004000
        0x0000039a:    6048        H`      STR      r0,[r1,#4]
        0x0000039c:    2005        .       MOVS     r0,#5
        0x0000039e:    0700        ..      LSLS     r0,r0,#28
        0x000003a0:    6b00        .k      LDR      r0,[r0,#0x30]
        0x000003a2:    09c0        ..      LSRS     r0,r0,#7
        0x000003a4:    01c0        ..      LSLS     r0,r0,#7
        0x000003a6:    2105        .!      MOVS     r1,#5
        0x000003a8:    0709        ..      LSLS     r1,r1,#28
        0x000003aa:    6308        .c      STR      r0,[r1,#0x30]
        0x000003ac:    4608        .F      MOV      r0,r1
        0x000003ae:    6b00        .k      LDR      r0,[r0,#0x30]
        0x000003b0:    21ff        .!      MOVS     r1,#0xff
        0x000003b2:    4308        .C      ORRS     r0,r0,r1
        0x000003b4:    2105        .!      MOVS     r1,#5
        0x000003b6:    0709        ..      LSLS     r1,r1,#28
        0x000003b8:    6308        .c      STR      r0,[r1,#0x30]
        0x000003ba:    4816        .H      LDR      r0,[pc,#88] ; [0x414] = 0x50000040
        0x000003bc:    6900        .i      LDR      r0,[r0,#0x10]
        0x000003be:    4916        .I      LDR      r1,[pc,#88] ; [0x418] = 0xffe0f7fb
        0x000003c0:    4008        .@      ANDS     r0,r0,r1
        0x000003c2:    4914        .I      LDR      r1,[pc,#80] ; [0x414] = 0x50000040
        0x000003c4:    6108        .a      STR      r0,[r1,#0x10]
        0x000003c6:    4608        .F      MOV      r0,r1
        0x000003c8:    6900        .i      LDR      r0,[r0,#0x10]
        0x000003ca:    6108        .a      STR      r0,[r1,#0x10]
        0x000003cc:    4608        .F      MOV      r0,r1
        0x000003ce:    6980        .i      LDR      r0,[r0,#0x18]
        0x000003d0:    21ff        .!      MOVS     r1,#0xff
        0x000003d2:    31f0        .1      ADDS     r1,r1,#0xf0
        0x000003d4:    4388        .C      BICS     r0,r0,r1
        0x000003d6:    490f        .I      LDR      r1,[pc,#60] ; [0x414] = 0x50000040
        0x000003d8:    6188        .a      STR      r0,[r1,#0x18]
        0x000003da:    4608        .F      MOV      r0,r1
        0x000003dc:    6980        .i      LDR      r0,[r0,#0x18]
        0x000003de:    6188        .a      STR      r0,[r1,#0x18]
        0x000003e0:    23ff        .#      MOVS     r3,#0xff
        0x000003e2:    220c        ."      MOVS     r2,#0xc
        0x000003e4:    2100        .!      MOVS     r1,#0
        0x000003e6:    480d        .H      LDR      r0,[pc,#52] ; [0x41c] = 0x400e0000
        0x000003e8:    f7ffffc0    ....    BL       ADC_Open ; 0x36c
        0x000003ec:    480b        .H      LDR      r0,[pc,#44] ; [0x41c] = 0x400e0000
        0x000003ee:    6a00        .j      LDR      r0,[r0,#0x20]
        0x000003f0:    2101        .!      MOVS     r1,#1
        0x000003f2:    4308        .C      ORRS     r0,r0,r1
        0x000003f4:    4909        .I      LDR      r1,[pc,#36] ; [0x41c] = 0x400e0000
        0x000003f6:    6208        .b      STR      r0,[r1,#0x20]
        0x000003f8:    2001        .       MOVS     r0,#1
        0x000003fa:    6308        .c      STR      r0,[r1,#0x30]
        0x000003fc:    4608        .F      MOV      r0,r1
        0x000003fe:    6a00        .j      LDR      r0,[r0,#0x20]
        0x00000400:    2101        .!      MOVS     r1,#1
        0x00000402:    02c9        ..      LSLS     r1,r1,#11
        0x00000404:    4308        .C      ORRS     r0,r0,r1
        0x00000406:    4905        .I      LDR      r1,[pc,#20] ; [0x41c] = 0x400e0000
        0x00000408:    6208        .b      STR      r0,[r1,#0x20]
        0x0000040a:    f7ffff4b    ..K.    BL       ADC_AvgSampleStart ; 0x2a4
        0x0000040e:    bd10        ..      POP      {r4,pc}
    $d
        0x00000410:    50004000    .@.P    DCD    1342193664
        0x00000414:    50000040    @..P    DCD    1342177344
        0x00000418:    ffe0f7fb    ....    DCD    4292933627
        0x0000041c:    400e0000    ...@    DCD    1074659328
    $t
    i.ADC_SampleTimerTask
    ADC_SampleTimerTask
        0x00000420:    b570        p.      PUSH     {r4-r6,lr}
        0x00000422:    4603        .F      MOV      r3,r0
        0x00000424:    2000        .       MOVS     r0,#0
        0x00000426:    e014        ..      B        0x452 ; ADC_SampleTimerTask + 50
        0x00000428:    0084        ..      LSLS     r4,r0,#2
        0x0000042a:    4d1d        .M      LDR      r5,[pc,#116] ; [0x4a0] = 0x400e0000
        0x0000042c:    1964        d.      ADDS     r4,r4,r5
        0x0000042e:    6824        $h      LDR      r4,[r4,#0]
        0x00000430:    b2a5        ..      UXTH     r5,r4
        0x00000432:    2412        .$      MOVS     r4,#0x12
        0x00000434:    4344        DC      MULS     r4,r0,r4
        0x00000436:    4e1b        .N      LDR      r6,[pc,#108] ; [0x4a4] = 0x20002970
        0x00000438:    19a4        ..      ADDS     r4,r4,r6
        0x0000043a:    4e1b        .N      LDR      r6,[pc,#108] ; [0x4a8] = 0x2000007e
        0x0000043c:    7836        6x      LDRB     r6,[r6,#0]
        0x0000043e:    0076        v.      LSLS     r6,r6,#1
        0x00000440:    53a5        .S      STRH     r5,[r4,r6]
        0x00000442:    2500        .%      MOVS     r5,#0
        0x00000444:    2412        .$      MOVS     r4,#0x12
        0x00000446:    4344        DC      MULS     r4,r0,r4
        0x00000448:    4e16        .N      LDR      r6,[pc,#88] ; [0x4a4] = 0x20002970
        0x0000044a:    19a4        ..      ADDS     r4,r4,r6
        0x0000044c:    8225        %.      STRH     r5,[r4,#0x10]
        0x0000044e:    1c44        D.      ADDS     r4,r0,#1
        0x00000450:    b2e0        ..      UXTB     r0,r4
        0x00000452:    2808        .(      CMP      r0,#8
        0x00000454:    dbe8        ..      BLT      0x428 ; ADC_SampleTimerTask + 8
        0x00000456:    4c14        .L      LDR      r4,[pc,#80] ; [0x4a8] = 0x2000007e
        0x00000458:    7824        $x      LDRB     r4,[r4,#0]
        0x0000045a:    1c64        d.      ADDS     r4,r4,#1
        0x0000045c:    4d12        .M      LDR      r5,[pc,#72] ; [0x4a8] = 0x2000007e
        0x0000045e:    702c        ,p      STRB     r4,[r5,#0]
        0x00000460:    462c        ,F      MOV      r4,r5
        0x00000462:    7824        $x      LDRB     r4,[r4,#0]
        0x00000464:    2c08        .,      CMP      r4,#8
        0x00000466:    db01        ..      BLT      0x46c ; ADC_SampleTimerTask + 76
        0x00000468:    2400        .$      MOVS     r4,#0
        0x0000046a:    702c        ,p      STRB     r4,[r5,#0]
        0x0000046c:    2000        .       MOVS     r0,#0
        0x0000046e:    e013        ..      B        0x498 ; ADC_SampleTimerTask + 120
        0x00000470:    2412        .$      MOVS     r4,#0x12
        0x00000472:    4344        DC      MULS     r4,r0,r4
        0x00000474:    4d0b        .M      LDR      r5,[pc,#44] ; [0x4a4] = 0x20002970
        0x00000476:    1961        a.      ADDS     r1,r4,r5
        0x00000478:    2200        ."      MOVS     r2,#0
        0x0000047a:    e006        ..      B        0x48a ; ADC_SampleTimerTask + 106
        0x0000047c:    8a0c        ..      LDRH     r4,[r1,#0x10]
        0x0000047e:    0055        U.      LSLS     r5,r2,#1
        0x00000480:    5b4d        M[      LDRH     r5,[r1,r5]
        0x00000482:    1964        d.      ADDS     r4,r4,r5
        0x00000484:    820c        ..      STRH     r4,[r1,#0x10]
        0x00000486:    1c54        T.      ADDS     r4,r2,#1
        0x00000488:    b2e2        ..      UXTB     r2,r4
        0x0000048a:    2a08        .*      CMP      r2,#8
        0x0000048c:    dbf6        ..      BLT      0x47c ; ADC_SampleTimerTask + 92
        0x0000048e:    8a0c        ..      LDRH     r4,[r1,#0x10]
        0x00000490:    10e4        ..      ASRS     r4,r4,#3
        0x00000492:    820c        ..      STRH     r4,[r1,#0x10]
        0x00000494:    1c44        D.      ADDS     r4,r0,#1
        0x00000496:    b2e0        ..      UXTB     r0,r4
        0x00000498:    2808        .(      CMP      r0,#8
        0x0000049a:    dbe9        ..      BLT      0x470 ; ADC_SampleTimerTask + 80
        0x0000049c:    bd70        p.      POP      {r4-r6,pc}
    $d
        0x0000049e:    0000        ..      DCW    0
        0x000004a0:    400e0000    ...@    DCD    1074659328
        0x000004a4:    20002970    p).     DCD    536881520
        0x000004a8:    2000007e    ~..     DCD    536871038
    $t
    i.BoardComInit
    BoardComInit
        0x000004ac:    b508        ..      PUSH     {r3,lr}
        0x000004ae:    4837        7H      LDR      r0,[pc,#220] ; [0x58c] = 0x57803d11
        0x000004b0:    f000fe50    ..P.    BL       CLK_EnableModuleClock ; 0x1154
        0x000004b4:    2200        ."      MOVS     r2,#0
        0x000004b6:    2103        .!      MOVS     r1,#3
        0x000004b8:    0609        ..      LSLS     r1,r1,#24
        0x000004ba:    4834        4H      LDR      r0,[pc,#208] ; [0x58c] = 0x57803d11
        0x000004bc:    f001f8ea    ....    BL       CLK_SetModuleClock ; 0x1694
        0x000004c0:    2005        .       MOVS     r0,#5
        0x000004c2:    0700        ..      LSLS     r0,r0,#28
        0x000004c4:    6b40        @k      LDR      r0,[r0,#0x34]
        0x000004c6:    2133        3!      MOVS     r1,#0x33
        0x000004c8:    4388        .C      BICS     r0,r0,r1
        0x000004ca:    2105        .!      MOVS     r1,#5
        0x000004cc:    0709        ..      LSLS     r1,r1,#28
        0x000004ce:    6348        Hc      STR      r0,[r1,#0x34]
        0x000004d0:    4608        .F      MOV      r0,r1
        0x000004d2:    6b40        @k      LDR      r0,[r0,#0x34]
        0x000004d4:    2133        3!      MOVS     r1,#0x33
        0x000004d6:    4308        .C      ORRS     r0,r0,r1
        0x000004d8:    2105        .!      MOVS     r1,#5
        0x000004da:    0709        ..      LSLS     r1,r1,#28
        0x000004dc:    6348        Hc      STR      r0,[r1,#0x34]
        0x000004de:    4608        .F      MOV      r0,r1
        0x000004e0:    6bc0        .k      LDR      r0,[r0,#0x3c]
        0x000004e2:    2103        .!      MOVS     r1,#3
        0x000004e4:    0389        ..      LSLS     r1,r1,#14
        0x000004e6:    4388        .C      BICS     r0,r0,r1
        0x000004e8:    2105        .!      MOVS     r1,#5
        0x000004ea:    0709        ..      LSLS     r1,r1,#28
        0x000004ec:    63c8        .c      STR      r0,[r1,#0x3c]
        0x000004ee:    4608        .F      MOV      r0,r1
        0x000004f0:    6bc0        .k      LDR      r0,[r0,#0x3c]
        0x000004f2:    2103        .!      MOVS     r1,#3
        0x000004f4:    0389        ..      LSLS     r1,r1,#14
        0x000004f6:    4308        .C      ORRS     r0,r0,r1
        0x000004f8:    2105        .!      MOVS     r1,#5
        0x000004fa:    0709        ..      LSLS     r1,r1,#28
        0x000004fc:    63c8        .c      STR      r0,[r1,#0x3c]
        0x000004fe:    4824        $H      LDR      r0,[pc,#144] ; [0x590] = 0x4000011
        0x00000500:    f001fdfa    ....    BL       SYS_ResetModule ; 0x20f8
        0x00000504:    21e1        .!      MOVS     r1,#0xe1
        0x00000506:    0249        I.      LSLS     r1,r1,#9
        0x00000508:    4822        "H      LDR      r0,[pc,#136] ; [0x594] = 0x40150000
        0x0000050a:    f002f8a5    ....    BL       UART_Open ; 0x2658
        0x0000050e:    2000        .       MOVS     r0,#0
        0x00000510:    4603        .F      MOV      r3,r0
        0x00000512:    2203        ."      MOVS     r2,#3
        0x00000514:    21e1        .!      MOVS     r1,#0xe1
        0x00000516:    0249        I.      LSLS     r1,r1,#9
        0x00000518:    9000        ..      STR      r0,[sp,#0]
        0x0000051a:    481e        .H      LDR      r0,[pc,#120] ; [0x594] = 0x40150000
        0x0000051c:    f002f8f8    ....    BL       UART_SetLine_Config ; 0x2710
        0x00000520:    2101        .!      MOVS     r1,#1
        0x00000522:    481c        .H      LDR      r0,[pc,#112] ; [0x594] = 0x40150000
        0x00000524:    f002f87c    ..|.    BL       UART_EnableInt ; 0x2620
        0x00000528:    200d        .       MOVS     r0,#0xd
        0x0000052a:    2101        .!      MOVS     r1,#1
        0x0000052c:    4081        .@      LSLS     r1,r1,r0
        0x0000052e:    4a1a        .J      LDR      r2,[pc,#104] ; [0x598] = 0xe000e100
        0x00000530:    6011        .`      STR      r1,[r2,#0]
        0x00000532:    bf00        ..      NOP      
        0x00000534:    2102        .!      MOVS     r1,#2
        0x00000536:    f001fc1f    ....    BL       NVIC_SetPriority ; 0x1d78
        0x0000053a:    4816        .H      LDR      r0,[pc,#88] ; [0x594] = 0x40150000
        0x0000053c:    4917        .I      LDR      r1,[pc,#92] ; [0x59c] = 0x200028d4
        0x0000053e:    6008        .`      STR      r0,[r1,#0]
        0x00000540:    2000        .       MOVS     r0,#0
        0x00000542:    6048        H`      STR      r0,[r1,#4]
        0x00000544:    6088        .`      STR      r0,[r1,#8]
        0x00000546:    60c8        .`      STR      r0,[r1,#0xc]
        0x00000548:    204b        K       MOVS     r0,#0x4b
        0x0000054a:    0200        ..      LSLS     r0,r0,#8
        0x0000054c:    f001fc8c    ....    BL       SC2ComInit ; 0x1e68
        0x00000550:    480e        .H      LDR      r0,[pc,#56] ; [0x58c] = 0x57803d11
        0x00000552:    1e40        @.      SUBS     r0,r0,#1
        0x00000554:    f000fdfe    ....    BL       CLK_EnableModuleClock ; 0x1154
        0x00000558:    2200        ."      MOVS     r2,#0
        0x0000055a:    2103        .!      MOVS     r1,#3
        0x0000055c:    0609        ..      LSLS     r1,r1,#24
        0x0000055e:    480b        .H      LDR      r0,[pc,#44] ; [0x58c] = 0x57803d11
        0x00000560:    1e40        @.      SUBS     r0,r0,#1
        0x00000562:    f001f897    ....    BL       CLK_SetModuleClock ; 0x1694
        0x00000566:    480a        .H      LDR      r0,[pc,#40] ; [0x590] = 0x4000011
        0x00000568:    1e40        @.      SUBS     r0,r0,#1
        0x0000056a:    f001fdc5    ....    BL       SYS_ResetModule ; 0x20f8
        0x0000056e:    21e1        .!      MOVS     r1,#0xe1
        0x00000570:    0249        I.      LSLS     r1,r1,#9
        0x00000572:    480b        .H      LDR      r0,[pc,#44] ; [0x5a0] = 0x40050000
        0x00000574:    f002f870    ..p.    BL       UART_Open ; 0x2658
        0x00000578:    2000        .       MOVS     r0,#0
        0x0000057a:    4603        .F      MOV      r3,r0
        0x0000057c:    2203        ."      MOVS     r2,#3
        0x0000057e:    21e1        .!      MOVS     r1,#0xe1
        0x00000580:    0249        I.      LSLS     r1,r1,#9
        0x00000582:    9000        ..      STR      r0,[sp,#0]
        0x00000584:    4806        .H      LDR      r0,[pc,#24] ; [0x5a0] = 0x40050000
        0x00000586:    f002f8c3    ....    BL       UART_SetLine_Config ; 0x2710
        0x0000058a:    bd08        ..      POP      {r3,pc}
    $d
        0x0000058c:    57803d11    .=.W    DCD    1468022033
        0x00000590:    04000011    ....    DCD    67108881
        0x00000594:    40150000    ...@    DCD    1075118080
        0x00000598:    e000e100    ....    DCD    3758153984
        0x0000059c:    200028d4    .(.     DCD    536881364
        0x000005a0:    40050000    ...@    DCD    1074069504
    $t
    i.BoardIoInit
    BoardIoInit
        0x000005a4:    b510        ..      PUSH     {r4,lr}
        0x000005a6:    4818        .H      LDR      r0,[pc,#96] ; [0x608] = 0x3020004
        0x000005a8:    f001fb54    ..T.    BL       GpioToPort ; 0x1c54
        0x000005ac:    4604        .F      MOV      r4,r0
        0x000005ae:    2201        ."      MOVS     r2,#1
        0x000005b0:    2104        .!      MOVS     r1,#4
        0x000005b2:    f001fb1d    ....    BL       GPIO_SetMode ; 0x1bf0
        0x000005b6:    4815        .H      LDR      r0,[pc,#84] ; [0x60c] = 0x3030008
        0x000005b8:    f001fb4c    ..L.    BL       GpioToPort ; 0x1c54
        0x000005bc:    4604        .F      MOV      r4,r0
        0x000005be:    2201        ."      MOVS     r2,#1
        0x000005c0:    2108        .!      MOVS     r1,#8
        0x000005c2:    f001fb15    ....    BL       GPIO_SetMode ; 0x1bf0
        0x000005c6:    4812        .H      LDR      r0,[pc,#72] ; [0x610] = 0x2060040
        0x000005c8:    f001fb44    ..D.    BL       GpioToPort ; 0x1c54
        0x000005cc:    4604        .F      MOV      r4,r0
        0x000005ce:    2201        ."      MOVS     r2,#1
        0x000005d0:    2140        @!      MOVS     r1,#0x40
        0x000005d2:    f001fb0d    ....    BL       GPIO_SetMode ; 0x1bf0
        0x000005d6:    480f        .H      LDR      r0,[pc,#60] ; [0x614] = 0xb0800
        0x000005d8:    f001fb3c    ..<.    BL       GpioToPort ; 0x1c54
        0x000005dc:    4604        .F      MOV      r4,r0
        0x000005de:    2200        ."      MOVS     r2,#0
        0x000005e0:    2101        .!      MOVS     r1,#1
        0x000005e2:    02c9        ..      LSLS     r1,r1,#11
        0x000005e4:    f001fb04    ....    BL       GPIO_SetMode ; 0x1bf0
        0x000005e8:    2001        .       MOVS     r0,#1
        0x000005ea:    490b        .I      LDR      r1,[pc,#44] ; [0x618] = 0x50004280
        0x000005ec:    6188        .a      STR      r0,[r1,#0x18]
        0x000005ee:    480b        .H      LDR      r0,[pc,#44] ; [0x61c] = 0x3040010
        0x000005f0:    f001fb30    ..0.    BL       GpioToPort ; 0x1c54
        0x000005f4:    4604        .F      MOV      r4,r0
        0x000005f6:    2201        ."      MOVS     r2,#1
        0x000005f8:    2110        .!      MOVS     r1,#0x10
        0x000005fa:    f001faf9    ....    BL       GPIO_SetMode ; 0x1bf0
        0x000005fe:    2001        .       MOVS     r0,#1
        0x00000600:    4905        .I      LDR      r1,[pc,#20] ; [0x618] = 0x50004280
        0x00000602:    3140        @1      ADDS     r1,r1,#0x40
        0x00000604:    6108        .a      STR      r0,[r1,#0x10]
        0x00000606:    bd10        ..      POP      {r4,pc}
    $d
        0x00000608:    03020004    ....    DCD    50462724
        0x0000060c:    03030008    ....    DCD    50528264
        0x00000610:    02060040    @...    DCD    33947712
        0x00000614:    000b0800    ....    DCD    722944
        0x00000618:    50004280    .B.P    DCD    1342194304
        0x0000061c:    03040010    ....    DCD    50593808
    $t
    i.CAN0_IRQHandler
    CAN0_IRQHandler
        0x00000620:    b510        ..      PUSH     {r4,lr}
        0x00000622:    482e        .H      LDR      r0,[pc,#184] ; [0x6dc] = 0x40180000
        0x00000624:    6904        .i      LDR      r4,[r0,#0x10]
        0x00000626:    2001        .       MOVS     r0,#1
        0x00000628:    03c0        ..      LSLS     r0,r0,#15
        0x0000062a:    4284        .B      CMP      r4,r0
        0x0000062c:    d13b        ;.      BNE      0x6a6 ; CAN0_IRQHandler + 134
        0x0000062e:    482b        +H      LDR      r0,[pc,#172] ; [0x6dc] = 0x40180000
        0x00000630:    6840        @h      LDR      r0,[r0,#4]
        0x00000632:    2180        .!      MOVS     r1,#0x80
        0x00000634:    4008        .@      ANDS     r0,r0,r1
        0x00000636:    2800        .(      CMP      r0,#0
        0x00000638:    d010        ..      BEQ      0x65c ; CAN0_IRQHandler + 60
        0x0000063a:    4828        (H      LDR      r0,[pc,#160] ; [0x6dc] = 0x40180000
        0x0000063c:    6842        Bh      LDR      r2,[r0,#4]
        0x0000063e:    2100        .!      MOVS     r1,#0
        0x00000640:    a027        '.      ADR      r0,{pc}+0xa0 ; 0x6e0
        0x00000642:    f002f981    ....    BL       __0printf$8 ; 0x2948
        0x00000646:    4825        %H      LDR      r0,[pc,#148] ; [0x6dc] = 0x40180000
        0x00000648:    6800        .h      LDR      r0,[r0,#0]
        0x0000064a:    2141        A!      MOVS     r1,#0x41
        0x0000064c:    4388        .C      BICS     r0,r0,r1
        0x0000064e:    4923        #I      LDR      r1,[pc,#140] ; [0x6dc] = 0x40180000
        0x00000650:    6008        .`      STR      r0,[r1,#0]
        0x00000652:    4929        )I      LDR      r1,[pc,#164] ; [0x6f8] = 0x20000094
        0x00000654:    2000        .       MOVS     r0,#0
        0x00000656:    f001f95b    ..[.    BL       CanFreeMsgQueue ; 0x1910
        0x0000065a:    bd10        ..      POP      {r4,pc}
        0x0000065c:    481f        .H      LDR      r0,[pc,#124] ; [0x6dc] = 0x40180000
        0x0000065e:    6840        @h      LDR      r0,[r0,#4]
        0x00000660:    2140        @!      MOVS     r1,#0x40
        0x00000662:    4008        .@      ANDS     r0,r0,r1
        0x00000664:    2800        .(      CMP      r0,#0
        0x00000666:    d036        6.      BEQ      0x6d6 ; CAN0_IRQHandler + 182
        0x00000668:    481c        .H      LDR      r0,[pc,#112] ; [0x6dc] = 0x40180000
        0x0000066a:    6840        @h      LDR      r0,[r0,#4]
        0x0000066c:    2118        .!      MOVS     r1,#0x18
        0x0000066e:    4008        .@      ANDS     r0,r0,r1
        0x00000670:    2800        .(      CMP      r0,#0
        0x00000672:    d130        0.      BNE      0x6d6 ; CAN0_IRQHandler + 182
        0x00000674:    4819        .H      LDR      r0,[pc,#100] ; [0x6dc] = 0x40180000
        0x00000676:    6842        Bh      LDR      r2,[r0,#4]
        0x00000678:    2100        .!      MOVS     r1,#0
        0x0000067a:    a020         .      ADR      r0,{pc}+0x82 ; 0x6fc
        0x0000067c:    f002f964    ..d.    BL       __0printf$8 ; 0x2948
        0x00000680:    481d        .H      LDR      r0,[pc,#116] ; [0x6f8] = 0x20000094
        0x00000682:    6801        .h      LDR      r1,[r0,#0]
        0x00000684:    f001f999    ....    BL       CanMsgRemove ; 0x19ba
        0x00000688:    481b        .H      LDR      r0,[pc,#108] ; [0x6f8] = 0x20000094
        0x0000068a:    6800        .h      LDR      r0,[r0,#0]
        0x0000068c:    2800        .(      CMP      r0,#0
        0x0000068e:    d003        ..      BEQ      0x698 ; CAN0_IRQHandler + 120
        0x00000690:    2000        .       MOVS     r0,#0
        0x00000692:    f000faad    ....    BL       CAN_NormalModeTx ; 0xbf0
        0x00000696:    e01e        ..      B        0x6d6 ; CAN0_IRQHandler + 182
        0x00000698:    4810        .H      LDR      r0,[pc,#64] ; [0x6dc] = 0x40180000
        0x0000069a:    6800        .h      LDR      r0,[r0,#0]
        0x0000069c:    2104        .!      MOVS     r1,#4
        0x0000069e:    4388        .C      BICS     r0,r0,r1
        0x000006a0:    490e        .I      LDR      r1,[pc,#56] ; [0x6dc] = 0x40180000
        0x000006a2:    6008        .`      STR      r0,[r1,#0]
        0x000006a4:    e017        ..      B        0x6d6 ; CAN0_IRQHandler + 182
        0x000006a6:    2c00        .,      CMP      r4,#0
        0x000006a8:    d00b        ..      BEQ      0x6c2 ; CAN0_IRQHandler + 162
        0x000006aa:    4621        !F      MOV      r1,r4
        0x000006ac:    480b        .H      LDR      r0,[pc,#44] ; [0x6dc] = 0x40180000
        0x000006ae:    f000fa6d    ..m.    BL       CAN_MsgInterrupt ; 0xb8c
        0x000006b2:    480a        .H      LDR      r0,[pc,#40] ; [0x6dc] = 0x40180000
        0x000006b4:    6900        .i      LDR      r0,[r0,#0x10]
        0x000006b6:    1e40        @.      SUBS     r0,r0,#1
        0x000006b8:    b2c1        ..      UXTB     r1,r0
        0x000006ba:    4808        .H      LDR      r0,[pc,#32] ; [0x6dc] = 0x40180000
        0x000006bc:    f000f91c    ....    BL       CAN_CLR_INT_PENDING_BIT ; 0x8f8
        0x000006c0:    e009        ..      B        0x6d6 ; CAN0_IRQHandler + 182
        0x000006c2:    4815        .H      LDR      r0,[pc,#84] ; [0x718] = 0x40180140
        0x000006c4:    6ac0        .j      LDR      r0,[r0,#0x2c]
        0x000006c6:    2801        .(      CMP      r0,#1
        0x000006c8:    d105        ..      BNE      0x6d6 ; CAN0_IRQHandler + 182
        0x000006ca:    a014        ..      ADR      r0,{pc}+0x52 ; 0x71c
        0x000006cc:    f002f93c    ..<.    BL       __0printf$8 ; 0x2948
        0x000006d0:    2000        .       MOVS     r0,#0
        0x000006d2:    4911        .I      LDR      r1,[pc,#68] ; [0x718] = 0x40180140
        0x000006d4:    62c8        .b      STR      r0,[r1,#0x2c]
        0x000006d6:    bf00        ..      NOP      
        0x000006d8:    e7bf        ..      B        0x65a ; CAN0_IRQHandler + 58
    $d
        0x000006da:    0000        ..      DCW    0
        0x000006dc:    40180000    ...@    DCD    1075314688
        0x000006e0:    254e4143    CAN%    DCD    625885507
        0x000006e4:    4f422064    d BO    DCD    1329733732
        0x000006e8:    49204646    FF I    DCD    1226851910
        0x000006ec:    3028544e    NT(0    DCD    807949390
        0x000006f0:    32302578    x%02    DCD    842016120
        0x000006f4:    000a2978    x)..    DCD    665976
        0x000006f8:    20000094    ...     DCD    536871060
        0x000006fc:    254e4143    CAN%    DCD    625885507
        0x00000700:    57452064    d EW    DCD    1464148068
        0x00000704:    204e5241    ARN     DCD    542003777
        0x00000708:    28544e49    INT(    DCD    676613705
        0x0000070c:    30257830    0x%0    DCD    807761968
        0x00000710:    0a297832    2x).    DCD    170489906
        0x00000714:    00000000    ....    DCD    0
        0x00000718:    40180140    @..@    DCD    1075315008
        0x0000071c:    656b6157    Wake    DCD    1701536087
        0x00000720:    0a707520     up.    DCD    175142176
        0x00000724:    00000000    ....    DCD    0
    $t
    i.CAN1_IRQHandler
    CAN1_IRQHandler
        0x00000728:    b510        ..      PUSH     {r4,lr}
        0x0000072a:    482f        /H      LDR      r0,[pc,#188] ; [0x7e8] = 0x40184000
        0x0000072c:    6904        .i      LDR      r4,[r0,#0x10]
        0x0000072e:    2001        .       MOVS     r0,#1
        0x00000730:    03c0        ..      LSLS     r0,r0,#15
        0x00000732:    4284        .B      CMP      r4,r0
        0x00000734:    d13e        >.      BNE      0x7b4 ; CAN1_IRQHandler + 140
        0x00000736:    482c        ,H      LDR      r0,[pc,#176] ; [0x7e8] = 0x40184000
        0x00000738:    6840        @h      LDR      r0,[r0,#4]
        0x0000073a:    2180        .!      MOVS     r1,#0x80
        0x0000073c:    4008        .@      ANDS     r0,r0,r1
        0x0000073e:    2800        .(      CMP      r0,#0
        0x00000740:    d010        ..      BEQ      0x764 ; CAN1_IRQHandler + 60
        0x00000742:    4829        )H      LDR      r0,[pc,#164] ; [0x7e8] = 0x40184000
        0x00000744:    6842        Bh      LDR      r2,[r0,#4]
        0x00000746:    2101        .!      MOVS     r1,#1
        0x00000748:    a028        (.      ADR      r0,{pc}+0xa4 ; 0x7ec
        0x0000074a:    f002f8fd    ....    BL       __0printf$8 ; 0x2948
        0x0000074e:    4826        &H      LDR      r0,[pc,#152] ; [0x7e8] = 0x40184000
        0x00000750:    6800        .h      LDR      r0,[r0,#0]
        0x00000752:    2141        A!      MOVS     r1,#0x41
        0x00000754:    4388        .C      BICS     r0,r0,r1
        0x00000756:    4924        $I      LDR      r1,[pc,#144] ; [0x7e8] = 0x40184000
        0x00000758:    6008        .`      STR      r0,[r1,#0]
        0x0000075a:    492a        *I      LDR      r1,[pc,#168] ; [0x804] = 0x20000098
        0x0000075c:    2001        .       MOVS     r0,#1
        0x0000075e:    f001f8d7    ....    BL       CanFreeMsgQueue ; 0x1910
        0x00000762:    bd10        ..      POP      {r4,pc}
        0x00000764:    4820         H      LDR      r0,[pc,#128] ; [0x7e8] = 0x40184000
        0x00000766:    6840        @h      LDR      r0,[r0,#4]
        0x00000768:    2140        @!      MOVS     r1,#0x40
        0x0000076a:    4008        .@      ANDS     r0,r0,r1
        0x0000076c:    2800        .(      CMP      r0,#0
        0x0000076e:    d039        9.      BEQ      0x7e4 ; CAN1_IRQHandler + 188
        0x00000770:    481d        .H      LDR      r0,[pc,#116] ; [0x7e8] = 0x40184000
        0x00000772:    6840        @h      LDR      r0,[r0,#4]
        0x00000774:    2118        .!      MOVS     r1,#0x18
        0x00000776:    4008        .@      ANDS     r0,r0,r1
        0x00000778:    2800        .(      CMP      r0,#0
        0x0000077a:    d133        3.      BNE      0x7e4 ; CAN1_IRQHandler + 188
        0x0000077c:    481a        .H      LDR      r0,[pc,#104] ; [0x7e8] = 0x40184000
        0x0000077e:    6842        Bh      LDR      r2,[r0,#4]
        0x00000780:    2101        .!      MOVS     r1,#1
        0x00000782:    a021        !.      ADR      r0,{pc}+0x86 ; 0x808
        0x00000784:    f002f8e0    ....    BL       __0printf$8 ; 0x2948
        0x00000788:    481e        .H      LDR      r0,[pc,#120] ; [0x804] = 0x20000098
        0x0000078a:    1f00        ..      SUBS     r0,r0,#4
        0x0000078c:    6841        Ah      LDR      r1,[r0,#4]
        0x0000078e:    1d00        ..      ADDS     r0,r0,#4
        0x00000790:    f001f913    ....    BL       CanMsgRemove ; 0x19ba
        0x00000794:    481b        .H      LDR      r0,[pc,#108] ; [0x804] = 0x20000098
        0x00000796:    1f00        ..      SUBS     r0,r0,#4
        0x00000798:    6840        @h      LDR      r0,[r0,#4]
        0x0000079a:    2800        .(      CMP      r0,#0
        0x0000079c:    d003        ..      BEQ      0x7a6 ; CAN1_IRQHandler + 126
        0x0000079e:    2001        .       MOVS     r0,#1
        0x000007a0:    f000fa26    ..&.    BL       CAN_NormalModeTx ; 0xbf0
        0x000007a4:    e01e        ..      B        0x7e4 ; CAN1_IRQHandler + 188
        0x000007a6:    4810        .H      LDR      r0,[pc,#64] ; [0x7e8] = 0x40184000
        0x000007a8:    6800        .h      LDR      r0,[r0,#0]
        0x000007aa:    2104        .!      MOVS     r1,#4
        0x000007ac:    4388        .C      BICS     r0,r0,r1
        0x000007ae:    490e        .I      LDR      r1,[pc,#56] ; [0x7e8] = 0x40184000
        0x000007b0:    6008        .`      STR      r0,[r1,#0]
        0x000007b2:    e017        ..      B        0x7e4 ; CAN1_IRQHandler + 188
        0x000007b4:    2c00        .,      CMP      r4,#0
        0x000007b6:    d00b        ..      BEQ      0x7d0 ; CAN1_IRQHandler + 168
        0x000007b8:    4621        !F      MOV      r1,r4
        0x000007ba:    480b        .H      LDR      r0,[pc,#44] ; [0x7e8] = 0x40184000
        0x000007bc:    f000f9e6    ....    BL       CAN_MsgInterrupt ; 0xb8c
        0x000007c0:    4809        .H      LDR      r0,[pc,#36] ; [0x7e8] = 0x40184000
        0x000007c2:    6900        .i      LDR      r0,[r0,#0x10]
        0x000007c4:    1e40        @.      SUBS     r0,r0,#1
        0x000007c6:    b2c1        ..      UXTB     r1,r0
        0x000007c8:    4807        .H      LDR      r0,[pc,#28] ; [0x7e8] = 0x40184000
        0x000007ca:    f000f895    ....    BL       CAN_CLR_INT_PENDING_BIT ; 0x8f8
        0x000007ce:    e009        ..      B        0x7e4 ; CAN1_IRQHandler + 188
        0x000007d0:    4814        .H      LDR      r0,[pc,#80] ; [0x824] = 0x40184140
        0x000007d2:    6ac0        .j      LDR      r0,[r0,#0x2c]
        0x000007d4:    2801        .(      CMP      r0,#1
        0x000007d6:    d105        ..      BNE      0x7e4 ; CAN1_IRQHandler + 188
        0x000007d8:    a013        ..      ADR      r0,{pc}+0x50 ; 0x828
        0x000007da:    f002f8b5    ....    BL       __0printf$8 ; 0x2948
        0x000007de:    2000        .       MOVS     r0,#0
        0x000007e0:    4910        .I      LDR      r1,[pc,#64] ; [0x824] = 0x40184140
        0x000007e2:    62c8        .b      STR      r0,[r1,#0x2c]
        0x000007e4:    bf00        ..      NOP      
        0x000007e6:    e7bc        ..      B        0x762 ; CAN1_IRQHandler + 58
    $d
        0x000007e8:    40184000    .@.@    DCD    1075331072
        0x000007ec:    254e4143    CAN%    DCD    625885507
        0x000007f0:    4f422064    d BO    DCD    1329733732
        0x000007f4:    49204646    FF I    DCD    1226851910
        0x000007f8:    3028544e    NT(0    DCD    807949390
        0x000007fc:    32302578    x%02    DCD    842016120
        0x00000800:    000a2978    x)..    DCD    665976
        0x00000804:    20000098    ...     DCD    536871064
        0x00000808:    254e4143    CAN%    DCD    625885507
        0x0000080c:    57452064    d EW    DCD    1464148068
        0x00000810:    204e5241    ARN     DCD    542003777
        0x00000814:    28544e49    INT(    DCD    676613705
        0x00000818:    30257830    0x%0    DCD    807761968
        0x0000081c:    0a297832    2x).    DCD    170489906
        0x00000820:    00000000    ....    DCD    0
        0x00000824:    40184140    @A.@    DCD    1075331392
        0x00000828:    656b6157    Wake    DCD    1701536087
        0x0000082c:    0a707520     up.    DCD    175142176
        0x00000830:    00000000    ....    DCD    0
    $t
    i.CAN_BasicReceiveMsg
    CAN_BasicReceiveMsg
        0x00000834:    4602        .F      MOV      r2,r0
        0x00000836:    2098        .       MOVS     r0,#0x98
        0x00000838:    5880        .X      LDR      r0,[r0,r2]
        0x0000083a:    2301        .#      MOVS     r3,#1
        0x0000083c:    03db        ..      LSLS     r3,r3,#15
        0x0000083e:    4018        .@      ANDS     r0,r0,r3
        0x00000840:    2800        .(      CMP      r0,#0
        0x00000842:    d100        ..      BNE      0x846 ; CAN_BasicReceiveMsg + 18
        0x00000844:    4770        pG      BX       lr
        0x00000846:    6850        Ph      LDR      r0,[r2,#4]
        0x00000848:    2310        .#      MOVS     r3,#0x10
        0x0000084a:    4398        .C      BICS     r0,r0,r3
        0x0000084c:    6050        P`      STR      r0,[r2,#4]
        0x0000084e:    2333        3#      MOVS     r3,#0x33
        0x00000850:    2084        .       MOVS     r0,#0x84
        0x00000852:    5083        .P      STR      r3,[r0,r2]
        0x00000854:    2094        .       MOVS     r0,#0x94
        0x00000856:    5880        .X      LDR      r0,[r0,r2]
        0x00000858:    2301        .#      MOVS     r3,#1
        0x0000085a:    039b        ..      LSLS     r3,r3,#14
        0x0000085c:    4018        .@      ANDS     r0,r0,r3
        0x0000085e:    2800        .(      CMP      r0,#0
        0x00000860:    d106        ..      BNE      0x870 ; CAN_BasicReceiveMsg + 60
        0x00000862:    7008        .p      STRB     r0,[r1,#0]
        0x00000864:    2094        .       MOVS     r0,#0x94
        0x00000866:    5880        .X      LDR      r0,[r0,r2]
        0x00000868:    04c0        ..      LSLS     r0,r0,#19
        0x0000086a:    0d40        @.      LSRS     r0,r0,#21
        0x0000086c:    6048        H`      STR      r0,[r1,#4]
        0x0000086e:    e00b        ..      B        0x888 ; CAN_BasicReceiveMsg + 84
        0x00000870:    2001        .       MOVS     r0,#1
        0x00000872:    7008        .p      STRB     r0,[r1,#0]
        0x00000874:    2094        .       MOVS     r0,#0x94
        0x00000876:    5880        .X      LDR      r0,[r0,r2]
        0x00000878:    04c0        ..      LSLS     r0,r0,#19
        0x0000087a:    08c0        ..      LSRS     r0,r0,#3
        0x0000087c:    6048        H`      STR      r0,[r1,#4]
        0x0000087e:    2090        .       MOVS     r0,#0x90
        0x00000880:    5880        .X      LDR      r0,[r0,r2]
        0x00000882:    684b        Kh      LDR      r3,[r1,#4]
        0x00000884:    4303        .C      ORRS     r3,r3,r0
        0x00000886:    604b        K`      STR      r3,[r1,#4]
        0x00000888:    2094        .       MOVS     r0,#0x94
        0x0000088a:    5880        .X      LDR      r0,[r0,r2]
        0x0000088c:    2301        .#      MOVS     r3,#1
        0x0000088e:    035b        [.      LSLS     r3,r3,#13
        0x00000890:    4018        .@      ANDS     r0,r0,r3
        0x00000892:    0b40        @.      LSRS     r0,r0,#13
        0x00000894:    2301        .#      MOVS     r3,#1
        0x00000896:    4058        X@      EORS     r0,r0,r3
        0x00000898:    7048        Hp      STRB     r0,[r1,#1]
        0x0000089a:    2098        .       MOVS     r0,#0x98
        0x0000089c:    5880        .X      LDR      r0,[r0,r2]
        0x0000089e:    0700        ..      LSLS     r0,r0,#28
        0x000008a0:    0f00        ..      LSRS     r0,r0,#28
        0x000008a2:    7088        .p      STRB     r0,[r1,#2]
        0x000008a4:    209c        .       MOVS     r0,#0x9c
        0x000008a6:    5880        .X      LDR      r0,[r0,r2]
        0x000008a8:    7208        .r      STRB     r0,[r1,#8]
        0x000008aa:    209c        .       MOVS     r0,#0x9c
        0x000008ac:    5880        .X      LDR      r0,[r0,r2]
        0x000008ae:    23ff        .#      MOVS     r3,#0xff
        0x000008b0:    021b        ..      LSLS     r3,r3,#8
        0x000008b2:    4018        .@      ANDS     r0,r0,r3
        0x000008b4:    0a03        ..      LSRS     r3,r0,#8
        0x000008b6:    724b        Kr      STRB     r3,[r1,#9]
        0x000008b8:    20a0        .       MOVS     r0,#0xa0
        0x000008ba:    5880        .X      LDR      r0,[r0,r2]
        0x000008bc:    7288        .r      STRB     r0,[r1,#0xa]
        0x000008be:    20a0        .       MOVS     r0,#0xa0
        0x000008c0:    5880        .X      LDR      r0,[r0,r2]
        0x000008c2:    23ff        .#      MOVS     r3,#0xff
        0x000008c4:    021b        ..      LSLS     r3,r3,#8
        0x000008c6:    4018        .@      ANDS     r0,r0,r3
        0x000008c8:    0a03        ..      LSRS     r3,r0,#8
        0x000008ca:    72cb        .r      STRB     r3,[r1,#0xb]
        0x000008cc:    20a4        .       MOVS     r0,#0xa4
        0x000008ce:    5880        .X      LDR      r0,[r0,r2]
        0x000008d0:    7308        .s      STRB     r0,[r1,#0xc]
        0x000008d2:    20a4        .       MOVS     r0,#0xa4
        0x000008d4:    5880        .X      LDR      r0,[r0,r2]
        0x000008d6:    23ff        .#      MOVS     r3,#0xff
        0x000008d8:    021b        ..      LSLS     r3,r3,#8
        0x000008da:    4018        .@      ANDS     r0,r0,r3
        0x000008dc:    0a03        ..      LSRS     r3,r0,#8
        0x000008de:    734b        Ks      STRB     r3,[r1,#0xd]
        0x000008e0:    20a8        .       MOVS     r0,#0xa8
        0x000008e2:    5880        .X      LDR      r0,[r0,r2]
        0x000008e4:    7388        .s      STRB     r0,[r1,#0xe]
        0x000008e6:    20a8        .       MOVS     r0,#0xa8
        0x000008e8:    5880        .X      LDR      r0,[r0,r2]
        0x000008ea:    23ff        .#      MOVS     r3,#0xff
        0x000008ec:    021b        ..      LSLS     r3,r3,#8
        0x000008ee:    4018        .@      ANDS     r0,r0,r3
        0x000008f0:    0a03        ..      LSRS     r3,r0,#8
        0x000008f2:    73cb        .s      STRB     r3,[r1,#0xf]
        0x000008f4:    2001        .       MOVS     r0,#1
        0x000008f6:    e7a5        ..      B        0x844 ; CAN_BasicReceiveMsg + 16
    i.CAN_CLR_INT_PENDING_BIT
    CAN_CLR_INT_PENDING_BIT
        0x000008f8:    b570        p.      PUSH     {r4-r6,lr}
        0x000008fa:    2200        ."      MOVS     r2,#0
        0x000008fc:    2300        .#      MOVS     r3,#0
        0x000008fe:    e011        ..      B        0x924 ; CAN_CLR_INT_PENDING_BIT + 44
        0x00000900:    6a04        .j      LDR      r4,[r0,#0x20]
        0x00000902:    2501        .%      MOVS     r5,#1
        0x00000904:    03ed        ..      LSLS     r5,r5,#15
        0x00000906:    402c        ,@      ANDS     r4,r4,r5
        0x00000908:    2c00        .,      CMP      r4,#0
        0x0000090a:    d101        ..      BNE      0x910 ; CAN_CLR_INT_PENDING_BIT + 24
        0x0000090c:    2200        ."      MOVS     r2,#0
        0x0000090e:    e00d        ..      B        0x92c ; CAN_CLR_INT_PENDING_BIT + 52
        0x00000910:    2480        .$      MOVS     r4,#0x80
        0x00000912:    5824        $X      LDR      r4,[r4,r0]
        0x00000914:    2501        .%      MOVS     r5,#1
        0x00000916:    03ed        ..      LSLS     r5,r5,#15
        0x00000918:    402c        ,@      ANDS     r4,r4,r5
        0x0000091a:    2c00        .,      CMP      r4,#0
        0x0000091c:    d101        ..      BNE      0x922 ; CAN_CLR_INT_PENDING_BIT + 42
        0x0000091e:    2201        ."      MOVS     r2,#1
        0x00000920:    e004        ..      B        0x92c ; CAN_CLR_INT_PENDING_BIT + 52
        0x00000922:    1c5b        [.      ADDS     r3,r3,#1
        0x00000924:    2401        .$      MOVS     r4,#1
        0x00000926:    0724        $.      LSLS     r4,r4,#28
        0x00000928:    42a3        .B      CMP      r3,r4
        0x0000092a:    d3e9        ..      BCC      0x900 ; CAN_CLR_INT_PENDING_BIT + 8
        0x0000092c:    bf00        ..      NOP      
        0x0000092e:    250c        .%      MOVS     r5,#0xc
        0x00000930:    2460        `$      MOVS     r4,#0x60
        0x00000932:    4354        TC      MULS     r4,r2,r4
        0x00000934:    4606        .F      MOV      r6,r0
        0x00000936:    3620         6      ADDS     r6,r6,#0x20
        0x00000938:    19a4        ..      ADDS     r4,r4,r6
        0x0000093a:    6065        e`      STR      r5,[r4,#4]
        0x0000093c:    1c4c        L.      ADDS     r4,r1,#1
        0x0000093e:    2560        `%      MOVS     r5,#0x60
        0x00000940:    4355        UC      MULS     r5,r2,r5
        0x00000942:    5174        tQ      STR      r4,[r6,r5]
        0x00000944:    bd70        p.      POP      {r4-r6,pc}
        0x00000946:    0000        ..      MOVS     r0,r0
    i.CAN_ClearAllRecvId
    CAN_ClearAllRecvId
        0x00000948:    b510        ..      PUSH     {r4,lr}
        0x0000094a:    2100        .!      MOVS     r1,#0
        0x0000094c:    e00c        ..      B        0x968 ; CAN_ClearAllRecvId + 32
        0x0000094e:    2300        .#      MOVS     r3,#0
        0x00000950:    0082        ..      LSLS     r2,r0,#2
        0x00000952:    4c07        .L      LDR      r4,[pc,#28] ; [0x970] = 0x20000080
        0x00000954:    58a2        .X      LDR      r2,[r4,r2]
        0x00000956:    3220         2      ADDS     r2,r2,#0x20
        0x00000958:    6753        Sg      STR      r3,[r2,#0x74]
        0x0000095a:    1e5a        Z.      SUBS     r2,r3,#1
        0x0000095c:    0183        ..      LSLS     r3,r0,#6
        0x0000095e:    4c05        .L      LDR      r4,[pc,#20] ; [0x974] = 0x20002a84
        0x00000960:    191b        ..      ADDS     r3,r3,r4
        0x00000962:    008c        ..      LSLS     r4,r1,#2
        0x00000964:    511a        .Q      STR      r2,[r3,r4]
        0x00000966:    1c49        I.      ADDS     r1,r1,#1
        0x00000968:    2910        .)      CMP      r1,#0x10
        0x0000096a:    d3f0        ..      BCC      0x94e ; CAN_ClearAllRecvId + 6
        0x0000096c:    bd10        ..      POP      {r4,pc}
    $d
        0x0000096e:    0000        ..      DCW    0
        0x00000970:    20000080    ...     DCD    536871040
        0x00000974:    20002a84    .*.     DCD    536881796
    $t
    i.CAN_Close
    CAN_Close
        0x00000978:    b510        ..      PUSH     {r4,lr}
        0x0000097a:    4604        .F      MOV      r4,r0
        0x0000097c:    210e        .!      MOVS     r1,#0xe
        0x0000097e:    4620         F      MOV      r0,r4
        0x00000980:    f000f801    ....    BL       CAN_DisableInt ; 0x986
        0x00000984:    bd10        ..      POP      {r4,pc}
    i.CAN_DisableInt
    CAN_DisableInt
        0x00000986:    b510        ..      PUSH     {r4,lr}
        0x00000988:    4603        .F      MOV      r3,r0
        0x0000098a:    460c        .F      MOV      r4,r1
        0x0000098c:    4618        .F      MOV      r0,r3
        0x0000098e:    f000f83e    ..>.    BL       CAN_EnterInitMode ; 0xa0e
        0x00000992:    2004        .       MOVS     r0,#4
        0x00000994:    4020         @      ANDS     r0,r0,r4
        0x00000996:    2800        .(      CMP      r0,#0
        0x00000998:    d001        ..      BEQ      0x99e ; CAN_DisableInt + 24
        0x0000099a:    2004        .       MOVS     r0,#4
        0x0000099c:    e000        ..      B        0x9a0 ; CAN_DisableInt + 26
        0x0000099e:    2000        .       MOVS     r0,#0
        0x000009a0:    2102        .!      MOVS     r1,#2
        0x000009a2:    4308        .C      ORRS     r0,r0,r1
        0x000009a4:    2108        .!      MOVS     r1,#8
        0x000009a6:    4021        !@      ANDS     r1,r1,r4
        0x000009a8:    2900        .)      CMP      r1,#0
        0x000009aa:    d001        ..      BEQ      0x9b0 ; CAN_DisableInt + 42
        0x000009ac:    2108        .!      MOVS     r1,#8
        0x000009ae:    e000        ..      B        0x9b2 ; CAN_DisableInt + 44
        0x000009b0:    2100        .!      MOVS     r1,#0
        0x000009b2:    4308        .C      ORRS     r0,r0,r1
        0x000009b4:    6819        .h      LDR      r1,[r3,#0]
        0x000009b6:    4381        .C      BICS     r1,r1,r0
        0x000009b8:    6019        .`      STR      r1,[r3,#0]
        0x000009ba:    4618        .F      MOV      r0,r3
        0x000009bc:    f000f8da    ....    BL       CAN_LeaveInitMode ; 0xb74
        0x000009c0:    bd10        ..      POP      {r4,pc}
    i.CAN_EnableInt
    CAN_EnableInt
        0x000009c2:    b510        ..      PUSH     {r4,lr}
        0x000009c4:    4604        .F      MOV      r4,r0
        0x000009c6:    460b        .F      MOV      r3,r1
        0x000009c8:    4620         F      MOV      r0,r4
        0x000009ca:    f000f820    .. .    BL       CAN_EnterInitMode ; 0xa0e
        0x000009ce:    6820         h      LDR      r0,[r4,#0]
        0x000009d0:    21f1        .!      MOVS     r1,#0xf1
        0x000009d2:    4008        .@      ANDS     r0,r0,r1
        0x000009d4:    2102        .!      MOVS     r1,#2
        0x000009d6:    4019        .@      ANDS     r1,r1,r3
        0x000009d8:    2900        .)      CMP      r1,#0
        0x000009da:    d001        ..      BEQ      0x9e0 ; CAN_EnableInt + 30
        0x000009dc:    2102        .!      MOVS     r1,#2
        0x000009de:    e000        ..      B        0x9e2 ; CAN_EnableInt + 32
        0x000009e0:    2100        .!      MOVS     r1,#0
        0x000009e2:    4308        .C      ORRS     r0,r0,r1
        0x000009e4:    2104        .!      MOVS     r1,#4
        0x000009e6:    4019        .@      ANDS     r1,r1,r3
        0x000009e8:    2900        .)      CMP      r1,#0
        0x000009ea:    d001        ..      BEQ      0x9f0 ; CAN_EnableInt + 46
        0x000009ec:    2104        .!      MOVS     r1,#4
        0x000009ee:    e000        ..      B        0x9f2 ; CAN_EnableInt + 48
        0x000009f0:    2100        .!      MOVS     r1,#0
        0x000009f2:    4308        .C      ORRS     r0,r0,r1
        0x000009f4:    2108        .!      MOVS     r1,#8
        0x000009f6:    4019        .@      ANDS     r1,r1,r3
        0x000009f8:    2900        .)      CMP      r1,#0
        0x000009fa:    d001        ..      BEQ      0xa00 ; CAN_EnableInt + 62
        0x000009fc:    2108        .!      MOVS     r1,#8
        0x000009fe:    e000        ..      B        0xa02 ; CAN_EnableInt + 64
        0x00000a00:    2100        .!      MOVS     r1,#0
        0x00000a02:    4308        .C      ORRS     r0,r0,r1
        0x00000a04:    6020         `      STR      r0,[r4,#0]
        0x00000a06:    4620         F      MOV      r0,r4
        0x00000a08:    f000f8b4    ....    BL       CAN_LeaveInitMode ; 0xb74
        0x00000a0c:    bd10        ..      POP      {r4,pc}
    i.CAN_EnterInitMode
    CAN_EnterInitMode
        0x00000a0e:    6801        .h      LDR      r1,[r0,#0]
        0x00000a10:    2201        ."      MOVS     r2,#1
        0x00000a12:    4311        .C      ORRS     r1,r1,r2
        0x00000a14:    6001        .`      STR      r1,[r0,#0]
        0x00000a16:    6801        .h      LDR      r1,[r0,#0]
        0x00000a18:    2240        @"      MOVS     r2,#0x40
        0x00000a1a:    4311        .C      ORRS     r1,r1,r2
        0x00000a1c:    6001        .`      STR      r1,[r0,#0]
        0x00000a1e:    4770        pG      BX       lr
    i.CAN_EnterTestMode
    CAN_EnterTestMode
        0x00000a20:    6802        .h      LDR      r2,[r0,#0]
        0x00000a22:    2380        .#      MOVS     r3,#0x80
        0x00000a24:    431a        .C      ORRS     r2,r2,r3
        0x00000a26:    6002        .`      STR      r2,[r0,#0]
        0x00000a28:    6141        Aa      STR      r1,[r0,#0x14]
        0x00000a2a:    4770        pG      BX       lr
    i.CAN_Init
    CAN_Init
        0x00000a2c:    b570        p.      PUSH     {r4-r6,lr}
        0x00000a2e:    4604        .F      MOV      r4,r0
        0x00000a30:    460d        .F      MOV      r5,r1
        0x00000a32:    2c01        .,      CMP      r4,#1
        0x00000a34:    dd00        ..      BLE      0xa38 ; CAN_Init + 12
        0x00000a36:    bd70        p.      POP      {r4-r6,pc}
        0x00000a38:    462a        *F      MOV      r2,r5
        0x00000a3a:    4621        !F      MOV      r1,r4
        0x00000a3c:    a03b        ;.      ADR      r0,{pc}+0xf0 ; 0xb2c
        0x00000a3e:    f001ff83    ....    BL       __0printf$8 ; 0x2948
        0x00000a42:    00a1        ..      LSLS     r1,r4,#2
        0x00000a44:    4a3e        >J      LDR      r2,[pc,#248] ; [0xb40] = 0x20000080
        0x00000a46:    5850        PX      LDR      r0,[r2,r1]
        0x00000a48:    f7ffff96    ....    BL       CAN_Close ; 0x978
        0x00000a4c:    4620         F      MOV      r0,r4
        0x00000a4e:    f7ffff7b    ..{.    BL       CAN_ClearAllRecvId ; 0x948
        0x00000a52:    2c00        .,      CMP      r4,#0
        0x00000a54:    d12f        /.      BNE      0xab6 ; CAN_Init + 138
        0x00000a56:    2d00        .-      CMP      r5,#0
        0x00000a58:    d026        &.      BEQ      0xaa8 ; CAN_Init + 124
        0x00000a5a:    483a        :H      LDR      r0,[pc,#232] ; [0xb44] = 0x40000018
        0x00000a5c:    f000fb7a    ..z.    BL       CLK_EnableModuleClock ; 0x1154
        0x00000a60:    2005        .       MOVS     r0,#5
        0x00000a62:    0700        ..      LSLS     r0,r0,#28
        0x00000a64:    6bc0        .k      LDR      r0,[r0,#0x3c]
        0x00000a66:    21c0        .!      MOVS     r1,#0xc0
        0x00000a68:    4388        .C      BICS     r0,r0,r1
        0x00000a6a:    2105        .!      MOVS     r1,#5
        0x00000a6c:    0709        ..      LSLS     r1,r1,#28
        0x00000a6e:    63c8        .c      STR      r0,[r1,#0x3c]
        0x00000a70:    4608        .F      MOV      r0,r1
        0x00000a72:    6bc0        .k      LDR      r0,[r0,#0x3c]
        0x00000a74:    21c0        .!      MOVS     r1,#0xc0
        0x00000a76:    4308        .C      ORRS     r0,r0,r1
        0x00000a78:    2105        .!      MOVS     r1,#5
        0x00000a7a:    0709        ..      LSLS     r1,r1,#28
        0x00000a7c:    63c8        .c      STR      r0,[r1,#0x3c]
        0x00000a7e:    2101        .!      MOVS     r1,#1
        0x00000a80:    2014        .       MOVS     r0,#0x14
        0x00000a82:    f001f9b5    ....    BL       NVIC_SetPriority ; 0x1df0
        0x00000a86:    2014        .       MOVS     r0,#0x14
        0x00000a88:    f001f926    ..&.    BL       NVIC_EnableIRQ ; 0x1cd8
        0x00000a8c:    00a1        ..      LSLS     r1,r4,#2
        0x00000a8e:    4a2c        ,J      LDR      r2,[pc,#176] ; [0xb40] = 0x20000080
        0x00000a90:    5850        PX      LDR      r0,[r2,r1]
        0x00000a92:    2200        ."      MOVS     r2,#0
        0x00000a94:    4629        )F      MOV      r1,r5
        0x00000a96:    f000f8fd    ....    BL       CAN_Open ; 0xc94
        0x00000a9a:    00a1        ..      LSLS     r1,r4,#2
        0x00000a9c:    4a28        (J      LDR      r2,[pc,#160] ; [0xb40] = 0x20000080
        0x00000a9e:    5850        PX      LDR      r0,[r2,r1]
        0x00000aa0:    2106        .!      MOVS     r1,#6
        0x00000aa2:    f7ffff8e    ....    BL       CAN_EnableInt ; 0x9c2
        0x00000aa6:    e03f        ?.      B        0xb28 ; CAN_Init + 252
        0x00000aa8:    4826        &H      LDR      r0,[pc,#152] ; [0xb44] = 0x40000018
        0x00000aaa:    f000fb1d    ....    BL       CLK_DisableModuleClock ; 0x10e8
        0x00000aae:    2014        .       MOVS     r0,#0x14
        0x00000ab0:    f001f908    ....    BL       NVIC_DisableIRQ ; 0x1cc4
        0x00000ab4:    e038        8.      B        0xb28 ; CAN_Init + 252
        0x00000ab6:    2d00        .-      CMP      r5,#0
        0x00000ab8:    d02f        /.      BEQ      0xb1a ; CAN_Init + 238
        0x00000aba:    4822        "H      LDR      r0,[pc,#136] ; [0xb44] = 0x40000018
        0x00000abc:    1c40        @.      ADDS     r0,r0,#1
        0x00000abe:    f000fb49    ..I.    BL       CLK_EnableModuleClock ; 0x1154
        0x00000ac2:    2005        .       MOVS     r0,#5
        0x00000ac4:    0700        ..      LSLS     r0,r0,#28
        0x00000ac6:    6bc0        .k      LDR      r0,[r0,#0x3c]
        0x00000ac8:    2103        .!      MOVS     r1,#3
        0x00000aca:    0389        ..      LSLS     r1,r1,#14
        0x00000acc:    4388        .C      BICS     r0,r0,r1
        0x00000ace:    2105        .!      MOVS     r1,#5
        0x00000ad0:    0709        ..      LSLS     r1,r1,#28
        0x00000ad2:    63c8        .c      STR      r0,[r1,#0x3c]
        0x00000ad4:    4608        .F      MOV      r0,r1
        0x00000ad6:    6bc0        .k      LDR      r0,[r0,#0x3c]
        0x00000ad8:    2103        .!      MOVS     r1,#3
        0x00000ada:    0389        ..      LSLS     r1,r1,#14
        0x00000adc:    4308        .C      ORRS     r0,r0,r1
        0x00000ade:    2105        .!      MOVS     r1,#5
        0x00000ae0:    0709        ..      LSLS     r1,r1,#28
        0x00000ae2:    63c8        .c      STR      r0,[r1,#0x3c]
        0x00000ae4:    4818        .H      LDR      r0,[pc,#96] ; [0xb48] = 0x50000040
        0x00000ae6:    69c0        .i      LDR      r0,[r0,#0x1c]
        0x00000ae8:    2101        .!      MOVS     r1,#1
        0x00000aea:    4308        .C      ORRS     r0,r0,r1
        0x00000aec:    4916        .I      LDR      r1,[pc,#88] ; [0xb48] = 0x50000040
        0x00000aee:    61c8        .a      STR      r0,[r1,#0x1c]
        0x00000af0:    2102        .!      MOVS     r1,#2
        0x00000af2:    2015        .       MOVS     r0,#0x15
        0x00000af4:    f001f97c    ..|.    BL       NVIC_SetPriority ; 0x1df0
        0x00000af8:    2015        .       MOVS     r0,#0x15
        0x00000afa:    f001f8ed    ....    BL       NVIC_EnableIRQ ; 0x1cd8
        0x00000afe:    00a1        ..      LSLS     r1,r4,#2
        0x00000b00:    4a0f        .J      LDR      r2,[pc,#60] ; [0xb40] = 0x20000080
        0x00000b02:    5850        PX      LDR      r0,[r2,r1]
        0x00000b04:    2200        ."      MOVS     r2,#0
        0x00000b06:    4629        )F      MOV      r1,r5
        0x00000b08:    f000f8c4    ....    BL       CAN_Open ; 0xc94
        0x00000b0c:    00a1        ..      LSLS     r1,r4,#2
        0x00000b0e:    4a0c        .J      LDR      r2,[pc,#48] ; [0xb40] = 0x20000080
        0x00000b10:    5850        PX      LDR      r0,[r2,r1]
        0x00000b12:    2106        .!      MOVS     r1,#6
        0x00000b14:    f7ffff55    ..U.    BL       CAN_EnableInt ; 0x9c2
        0x00000b18:    e006        ..      B        0xb28 ; CAN_Init + 252
        0x00000b1a:    480a        .H      LDR      r0,[pc,#40] ; [0xb44] = 0x40000018
        0x00000b1c:    1c40        @.      ADDS     r0,r0,#1
        0x00000b1e:    f000fae3    ....    BL       CLK_DisableModuleClock ; 0x10e8
        0x00000b22:    2015        .       MOVS     r0,#0x15
        0x00000b24:    f001f8ce    ....    BL       NVIC_DisableIRQ ; 0x1cc4
        0x00000b28:    bf00        ..      NOP      
        0x00000b2a:    e784        ..      B        0xa36 ; CAN_Init + 10
    $d
        0x00000b2c:    5f4e4143    CAN_    DCD    1598964035
        0x00000b30:    74696e49    Init    DCD    1953066569
        0x00000b34:    2c642528    (%d,    DCD    744760616
        0x00000b38:    29642520     %d)    DCD    694428960
        0x00000b3c:    0000000a    ....    DCD    10
        0x00000b40:    20000080    ...     DCD    536871040
        0x00000b44:    40000018    ...@    DCD    1073741848
        0x00000b48:    50000040    @..P    DCD    1342177344
    $t
    i.CAN_IsNewDataReceived
    CAN_IsNewDataReceived
        0x00000b4c:    b510        ..      PUSH     {r4,lr}
        0x00000b4e:    4602        .F      MOV      r2,r0
        0x00000b50:    2910        .)      CMP      r1,#0x10
        0x00000b52:    da06        ..      BGE      0xb62 ; CAN_IsNewDataReceived + 22
        0x00000b54:    20ff        .       MOVS     r0,#0xff
        0x00000b56:    3021        !0      ADDS     r0,r0,#0x21
        0x00000b58:    5880        .X      LDR      r0,[r0,r2]
        0x00000b5a:    2301        .#      MOVS     r3,#1
        0x00000b5c:    408b        .@      LSLS     r3,r3,r1
        0x00000b5e:    4018        .@      ANDS     r0,r0,r3
        0x00000b60:    bd10        ..      POP      {r4,pc}
        0x00000b62:    20ff        .       MOVS     r0,#0xff
        0x00000b64:    3025        %0      ADDS     r0,r0,#0x25
        0x00000b66:    5880        .X      LDR      r0,[r0,r2]
        0x00000b68:    460b        .F      MOV      r3,r1
        0x00000b6a:    3b10        .;      SUBS     r3,r3,#0x10
        0x00000b6c:    2401        .$      MOVS     r4,#1
        0x00000b6e:    409c        .@      LSLS     r4,r4,r3
        0x00000b70:    4020         @      ANDS     r0,r0,r4
        0x00000b72:    e7f5        ..      B        0xb60 ; CAN_IsNewDataReceived + 20
    i.CAN_LeaveInitMode
    CAN_LeaveInitMode
        0x00000b74:    6801        .h      LDR      r1,[r0,#0]
        0x00000b76:    2241        A"      MOVS     r2,#0x41
        0x00000b78:    4391        .C      BICS     r1,r1,r2
        0x00000b7a:    6001        .`      STR      r1,[r0,#0]
        0x00000b7c:    bf00        ..      NOP      
        0x00000b7e:    6801        .h      LDR      r1,[r0,#0]
        0x00000b80:    07c9        ..      LSLS     r1,r1,#31
        0x00000b82:    0fc9        ..      LSRS     r1,r1,#31
        0x00000b84:    2900        .)      CMP      r1,#0
        0x00000b86:    d1fa        ..      BNE      0xb7e ; CAN_LeaveInitMode + 10
        0x00000b88:    4770        pG      BX       lr
        0x00000b8a:    0000        ..      MOVS     r0,r0
    i.CAN_MsgInterrupt
    CAN_MsgInterrupt
        0x00000b8c:    b57f        ..      PUSH     {r0-r6,lr}
        0x00000b8e:    4604        .F      MOV      r4,r0
        0x00000b90:    460e        .F      MOV      r6,r1
        0x00000b92:    1e76        v.      SUBS     r6,r6,#1
        0x00000b94:    4814        .H      LDR      r0,[pc,#80] ; [0xbe8] = 0x40180000
        0x00000b96:    4284        .B      CMP      r4,r0
        0x00000b98:    d001        ..      BEQ      0xb9e ; CAN_MsgInterrupt + 18
        0x00000b9a:    2001        .       MOVS     r0,#1
        0x00000b9c:    e000        ..      B        0xba0 ; CAN_MsgInterrupt + 20
        0x00000b9e:    2000        .       MOVS     r0,#0
        0x00000ba0:    4605        .F      MOV      r5,r0
        0x00000ba2:    6860        `h      LDR      r0,[r4,#4]
        0x00000ba4:    2110        .!      MOVS     r1,#0x10
        0x00000ba6:    4008        .@      ANDS     r0,r0,r1
        0x00000ba8:    2800        .(      CMP      r0,#0
        0x00000baa:    d00a        ..      BEQ      0xbc2 ; CAN_MsgInterrupt + 54
        0x00000bac:    6860        `h      LDR      r0,[r4,#4]
        0x00000bae:    4388        .C      BICS     r0,r0,r1
        0x00000bb0:    6060        ``      STR      r0,[r4,#4]
        0x00000bb2:    466a        jF      MOV      r2,sp
        0x00000bb4:    4631        1F      MOV      r1,r6
        0x00000bb6:    4620         F      MOV      r0,r4
        0x00000bb8:    f000f8e7    ....    BL       CAN_Receive ; 0xd8a
        0x00000bbc:    4668        hF      MOV      r0,sp
        0x00000bbe:    f000ff43    ..C.    BL       ForwardMsgToUart ; 0x1a48
        0x00000bc2:    6860        `h      LDR      r0,[r4,#4]
        0x00000bc4:    2108        .!      MOVS     r1,#8
        0x00000bc6:    4008        .@      ANDS     r0,r0,r1
        0x00000bc8:    2800        .(      CMP      r0,#0
        0x00000bca:    d00c        ..      BEQ      0xbe6 ; CAN_MsgInterrupt + 90
        0x00000bcc:    6860        `h      LDR      r0,[r4,#4]
        0x00000bce:    4388        .C      BICS     r0,r0,r1
        0x00000bd0:    6060        ``      STR      r0,[r4,#4]
        0x00000bd2:    00aa        ..      LSLS     r2,r5,#2
        0x00000bd4:    4b05        .K      LDR      r3,[pc,#20] ; [0xbec] = 0x20000094
        0x00000bd6:    5899        .X      LDR      r1,[r3,r2]
        0x00000bd8:    00aa        ..      LSLS     r2,r5,#2
        0x00000bda:    18d0        ..      ADDS     r0,r2,r3
        0x00000bdc:    f000feed    ....    BL       CanMsgRemove ; 0x19ba
        0x00000be0:    4628        (F      MOV      r0,r5
        0x00000be2:    f000f805    ....    BL       CAN_NormalModeTx ; 0xbf0
        0x00000be6:    bd7f        ..      POP      {r0-r6,pc}
    $d
        0x00000be8:    40180000    ...@    DCD    1075314688
        0x00000bec:    20000094    ...     DCD    536871060
    $t
    i.CAN_NormalModeTx
    CAN_NormalModeTx
        0x00000bf0:    b570        p.      PUSH     {r4-r6,lr}
        0x00000bf2:    4605        .F      MOV      r5,r0
        0x00000bf4:    2d00        .-      CMP      r5,#0
        0x00000bf6:    d101        ..      BNE      0xbfc ; CAN_NormalModeTx + 12
        0x00000bf8:    481e        .H      LDR      r0,[pc,#120] ; [0xc74] = 0x40180000
        0x00000bfa:    e000        ..      B        0xbfe ; CAN_NormalModeTx + 14
        0x00000bfc:    481e        .H      LDR      r0,[pc,#120] ; [0xc78] = 0x40184000
        0x00000bfe:    4604        .F      MOV      r4,r0
        0x00000c00:    6860        `h      LDR      r0,[r4,#4]
        0x00000c02:    2180        .!      MOVS     r1,#0x80
        0x00000c04:    4008        .@      ANDS     r0,r0,r1
        0x00000c06:    2800        .(      CMP      r0,#0
        0x00000c08:    d008        ..      BEQ      0xc1c ; CAN_NormalModeTx + 44
        0x00000c0a:    6861        ah      LDR      r1,[r4,#4]
        0x00000c0c:    a01b        ..      ADR      r0,{pc}+0x70 ; 0xc7c
        0x00000c0e:    f001fe9b    ....    BL       __0printf$8 ; 0x2948
        0x00000c12:    6820         h      LDR      r0,[r4,#0]
        0x00000c14:    2141        A!      MOVS     r1,#0x41
        0x00000c16:    4388        .C      BICS     r0,r0,r1
        0x00000c18:    6020         `      STR      r0,[r4,#0]
        0x00000c1a:    bd70        p.      POP      {r4-r6,pc}
        0x00000c1c:    00a8        ..      LSLS     r0,r5,#2
        0x00000c1e:    491b        .I      LDR      r1,[pc,#108] ; [0xc8c] = 0x20000094
        0x00000c20:    5808        .X      LDR      r0,[r1,r0]
        0x00000c22:    2800        .(      CMP      r0,#0
        0x00000c24:    d023        #.      BEQ      0xc6e ; CAN_NormalModeTx + 126
        0x00000c26:    2080        .       MOVS     r0,#0x80
        0x00000c28:    5900        .Y      LDR      r0,[r0,r4]
        0x00000c2a:    2101        .!      MOVS     r1,#1
        0x00000c2c:    03c9        ..      LSLS     r1,r1,#15
        0x00000c2e:    4008        .@      ANDS     r0,r0,r1
        0x00000c30:    2800        .(      CMP      r0,#0
        0x00000c32:    d11c        ..      BNE      0xc6e ; CAN_NormalModeTx + 126
        0x00000c34:    00a9        ..      LSLS     r1,r5,#2
        0x00000c36:    4a15        .J      LDR      r2,[pc,#84] ; [0xc8c] = 0x20000094
        0x00000c38:    5852        RX      LDR      r2,[r2,r1]
        0x00000c3a:    21ff        .!      MOVS     r1,#0xff
        0x00000c3c:    3181        .1      ADDS     r1,r1,#0x81
        0x00000c3e:    4369        iC      MULS     r1,r5,r1
        0x00000c40:    4b13        .K      LDR      r3,[pc,#76] ; [0xc90] = 0x20002e04
        0x00000c42:    18c9        ..      ADDS     r1,r1,r3
        0x00000c44:    1a50        P.      SUBS     r0,r2,r1
        0x00000c46:    2118        .!      MOVS     r1,#0x18
        0x00000c48:    f7fffa7a    ..z.    BL       __aeabi_uidiv ; 0x140
        0x00000c4c:    4606        .F      MOV      r6,r0
        0x00000c4e:    3610        .6      ADDS     r6,r6,#0x10
        0x00000c50:    00a8        ..      LSLS     r0,r5,#2
        0x00000c52:    490e        .I      LDR      r1,[pc,#56] ; [0xc8c] = 0x20000094
        0x00000c54:    580a        .X      LDR      r2,[r1,r0]
        0x00000c56:    4631        1F      MOV      r1,r6
        0x00000c58:    4620         F      MOV      r0,r4
        0x00000c5a:    f000f987    ....    BL       CAN_SetTxMsg ; 0xf6c
        0x00000c5e:    6820         h      LDR      r0,[r4,#0]
        0x00000c60:    2104        .!      MOVS     r1,#4
        0x00000c62:    4308        .C      ORRS     r0,r0,r1
        0x00000c64:    6020         `      STR      r0,[r4,#0]
        0x00000c66:    4631        1F      MOV      r1,r6
        0x00000c68:    4620         F      MOV      r0,r4
        0x00000c6a:    f000fa23    ..#.    BL       CAN_TriggerTxMsg ; 0x10b4
        0x00000c6e:    bf00        ..      NOP      
        0x00000c70:    e7d3        ..      B        0xc1a ; CAN_NormalModeTx + 42
    $d
        0x00000c72:    0000        ..      DCW    0
        0x00000c74:    40180000    ...@    DCD    1075314688
        0x00000c78:    40184000    .@.@    DCD    1075331072
        0x00000c7c:    46464f42    BOFF    DCD    1179012930
        0x00000c80:    25783028    (0x%    DCD    628633640
        0x00000c84:    29783230    02x)    DCD    695743024
        0x00000c88:    0000000a    ....    DCD    10
        0x00000c8c:    20000094    ...     DCD    536871060
        0x00000c90:    20002e04    ...     DCD    536882692
    $t
    i.CAN_Open
    CAN_Open
        0x00000c94:    b5f8        ..      PUSH     {r3-r7,lr}
        0x00000c96:    4605        .F      MOV      r5,r0
        0x00000c98:    460e        .F      MOV      r6,r1
        0x00000c9a:    4614        .F      MOV      r4,r2
        0x00000c9c:    4631        1F      MOV      r1,r6
        0x00000c9e:    4628        (F      MOV      r0,r5
        0x00000ca0:    f000f88e    ....    BL       CAN_SetBaudRate ; 0xdc0
        0x00000ca4:    4607        .F      MOV      r7,r0
        0x00000ca6:    2c01        .,      CMP      r4,#1
        0x00000ca8:    d103        ..      BNE      0xcb2 ; CAN_Open + 30
        0x00000caa:    2104        .!      MOVS     r1,#4
        0x00000cac:    4628        (F      MOV      r0,r5
        0x00000cae:    f7fffeb7    ....    BL       CAN_EnterTestMode ; 0xa20
        0x00000cb2:    4638        8F      MOV      r0,r7
        0x00000cb4:    bdf8        ..      POP      {r3-r7,pc}
    i.CAN_ReadMsgObj
    CAN_ReadMsgObj
        0x00000cb6:    b5f0        ..      PUSH     {r4-r7,lr}
        0x00000cb8:    4604        .F      MOV      r4,r0
        0x00000cba:    460e        .F      MOV      r6,r1
        0x00000cbc:    4617        .F      MOV      r7,r2
        0x00000cbe:    461d        .F      MOV      r5,r3
        0x00000cc0:    4631        1F      MOV      r1,r6
        0x00000cc2:    4620         F      MOV      r0,r4
        0x00000cc4:    f7ffff42    ..B.    BL       CAN_IsNewDataReceived ; 0xb4c
        0x00000cc8:    2800        .(      CMP      r0,#0
        0x00000cca:    d100        ..      BNE      0xcce ; CAN_ReadMsgObj + 24
        0x00000ccc:    bdf0        ..      POP      {r4-r7,pc}
        0x00000cce:    6860        `h      LDR      r0,[r4,#4]
        0x00000cd0:    2110        .!      MOVS     r1,#0x10
        0x00000cd2:    4388        .C      BICS     r0,r0,r1
        0x00000cd4:    6060        ``      STR      r0,[r4,#4]
        0x00000cd6:    2f00        ./      CMP      r7,#0
        0x00000cd8:    d001        ..      BEQ      0xcde ; CAN_ReadMsgObj + 40
        0x00000cda:    2004        .       MOVS     r0,#4
        0x00000cdc:    e000        ..      B        0xce0 ; CAN_ReadMsgObj + 42
        0x00000cde:    2000        .       MOVS     r0,#0
        0x00000ce0:    217b        {!      MOVS     r1,#0x7b
        0x00000ce2:    4301        .C      ORRS     r1,r1,r0
        0x00000ce4:    2084        .       MOVS     r0,#0x84
        0x00000ce6:    5101        .Q      STR      r1,[r0,r4]
        0x00000ce8:    1c70        p.      ADDS     r0,r6,#1
        0x00000cea:    2180        .!      MOVS     r1,#0x80
        0x00000cec:    5108        .Q      STR      r0,[r1,r4]
        0x00000cee:    bf00        ..      NOP      
        0x00000cf0:    2080        .       MOVS     r0,#0x80
        0x00000cf2:    5900        .Y      LDR      r0,[r0,r4]
        0x00000cf4:    2101        .!      MOVS     r1,#1
        0x00000cf6:    03c9        ..      LSLS     r1,r1,#15
        0x00000cf8:    4008        .@      ANDS     r0,r0,r1
        0x00000cfa:    2800        .(      CMP      r0,#0
        0x00000cfc:    d1f8        ..      BNE      0xcf0 ; CAN_ReadMsgObj + 58
        0x00000cfe:    2094        .       MOVS     r0,#0x94
        0x00000d00:    5900        .Y      LDR      r0,[r0,r4]
        0x00000d02:    1049        I.      ASRS     r1,r1,#1
        0x00000d04:    4008        .@      ANDS     r0,r0,r1
        0x00000d06:    2800        .(      CMP      r0,#0
        0x00000d08:    d106        ..      BNE      0xd18 ; CAN_ReadMsgObj + 98
        0x00000d0a:    7028        (p      STRB     r0,[r5,#0]
        0x00000d0c:    2094        .       MOVS     r0,#0x94
        0x00000d0e:    5900        .Y      LDR      r0,[r0,r4]
        0x00000d10:    04c0        ..      LSLS     r0,r0,#19
        0x00000d12:    0d40        @.      LSRS     r0,r0,#21
        0x00000d14:    6068        h`      STR      r0,[r5,#4]
        0x00000d16:    e009        ..      B        0xd2c ; CAN_ReadMsgObj + 118
        0x00000d18:    2001        .       MOVS     r0,#1
        0x00000d1a:    7028        (p      STRB     r0,[r5,#0]
        0x00000d1c:    2094        .       MOVS     r0,#0x94
        0x00000d1e:    5900        .Y      LDR      r0,[r0,r4]
        0x00000d20:    04c0        ..      LSLS     r0,r0,#19
        0x00000d22:    08c1        ..      LSRS     r1,r0,#3
        0x00000d24:    2090        .       MOVS     r0,#0x90
        0x00000d26:    5900        .Y      LDR      r0,[r0,r4]
        0x00000d28:    4301        .C      ORRS     r1,r1,r0
        0x00000d2a:    6069        i`      STR      r1,[r5,#4]
        0x00000d2c:    2098        .       MOVS     r0,#0x98
        0x00000d2e:    5900        .Y      LDR      r0,[r0,r4]
        0x00000d30:    0700        ..      LSLS     r0,r0,#28
        0x00000d32:    0f00        ..      LSRS     r0,r0,#28
        0x00000d34:    70a8        .p      STRB     r0,[r5,#2]
        0x00000d36:    209c        .       MOVS     r0,#0x9c
        0x00000d38:    5900        .Y      LDR      r0,[r0,r4]
        0x00000d3a:    7228        (r      STRB     r0,[r5,#8]
        0x00000d3c:    209c        .       MOVS     r0,#0x9c
        0x00000d3e:    5900        .Y      LDR      r0,[r0,r4]
        0x00000d40:    21ff        .!      MOVS     r1,#0xff
        0x00000d42:    0209        ..      LSLS     r1,r1,#8
        0x00000d44:    4008        .@      ANDS     r0,r0,r1
        0x00000d46:    0a01        ..      LSRS     r1,r0,#8
        0x00000d48:    7269        ir      STRB     r1,[r5,#9]
        0x00000d4a:    20a0        .       MOVS     r0,#0xa0
        0x00000d4c:    5900        .Y      LDR      r0,[r0,r4]
        0x00000d4e:    72a8        .r      STRB     r0,[r5,#0xa]
        0x00000d50:    20a0        .       MOVS     r0,#0xa0
        0x00000d52:    5900        .Y      LDR      r0,[r0,r4]
        0x00000d54:    21ff        .!      MOVS     r1,#0xff
        0x00000d56:    0209        ..      LSLS     r1,r1,#8
        0x00000d58:    4008        .@      ANDS     r0,r0,r1
        0x00000d5a:    0a01        ..      LSRS     r1,r0,#8
        0x00000d5c:    72e9        .r      STRB     r1,[r5,#0xb]
        0x00000d5e:    20a4        .       MOVS     r0,#0xa4
        0x00000d60:    5900        .Y      LDR      r0,[r0,r4]
        0x00000d62:    7328        (s      STRB     r0,[r5,#0xc]
        0x00000d64:    20a4        .       MOVS     r0,#0xa4
        0x00000d66:    5900        .Y      LDR      r0,[r0,r4]
        0x00000d68:    21ff        .!      MOVS     r1,#0xff
        0x00000d6a:    0209        ..      LSLS     r1,r1,#8
        0x00000d6c:    4008        .@      ANDS     r0,r0,r1
        0x00000d6e:    0a01        ..      LSRS     r1,r0,#8
        0x00000d70:    7369        is      STRB     r1,[r5,#0xd]
        0x00000d72:    20a8        .       MOVS     r0,#0xa8
        0x00000d74:    5900        .Y      LDR      r0,[r0,r4]
        0x00000d76:    73a8        .s      STRB     r0,[r5,#0xe]
        0x00000d78:    20a8        .       MOVS     r0,#0xa8
        0x00000d7a:    5900        .Y      LDR      r0,[r0,r4]
        0x00000d7c:    21ff        .!      MOVS     r1,#0xff
        0x00000d7e:    0209        ..      LSLS     r1,r1,#8
        0x00000d80:    4008        .@      ANDS     r0,r0,r1
        0x00000d82:    0a01        ..      LSRS     r1,r0,#8
        0x00000d84:    73e9        .s      STRB     r1,[r5,#0xf]
        0x00000d86:    2001        .       MOVS     r0,#1
        0x00000d88:    e7a0        ..      B        0xccc ; CAN_ReadMsgObj + 22
    i.CAN_Receive
    CAN_Receive
        0x00000d8a:    b570        p.      PUSH     {r4-r6,lr}
        0x00000d8c:    4604        .F      MOV      r4,r0
        0x00000d8e:    460e        .F      MOV      r6,r1
        0x00000d90:    4615        .F      MOV      r5,r2
        0x00000d92:    6820         h      LDR      r0,[r4,#0]
        0x00000d94:    2180        .!      MOVS     r1,#0x80
        0x00000d96:    4008        .@      ANDS     r0,r0,r1
        0x00000d98:    2800        .(      CMP      r0,#0
        0x00000d9a:    d009        ..      BEQ      0xdb0 ; CAN_Receive + 38
        0x00000d9c:    6960        `i      LDR      r0,[r4,#0x14]
        0x00000d9e:    2104        .!      MOVS     r1,#4
        0x00000da0:    4008        .@      ANDS     r0,r0,r1
        0x00000da2:    2800        .(      CMP      r0,#0
        0x00000da4:    d004        ..      BEQ      0xdb0 ; CAN_Receive + 38
        0x00000da6:    4629        )F      MOV      r1,r5
        0x00000da8:    4620         F      MOV      r0,r4
        0x00000daa:    f7fffd43    ..C.    BL       CAN_BasicReceiveMsg ; 0x834
        0x00000dae:    bd70        p.      POP      {r4-r6,pc}
        0x00000db0:    b2f1        ..      UXTB     r1,r6
        0x00000db2:    462b        +F      MOV      r3,r5
        0x00000db4:    2201        ."      MOVS     r2,#1
        0x00000db6:    4620         F      MOV      r0,r4
        0x00000db8:    f7ffff7d    ..}.    BL       CAN_ReadMsgObj ; 0xcb6
        0x00000dbc:    e7f7        ..      B        0xdae ; CAN_Receive + 36
        0x00000dbe:    0000        ..      MOVS     r0,r0
    i.CAN_SetBaudRate
    CAN_SetBaudRate
        0x00000dc0:    b5f3        ..      PUSH     {r0,r1,r4-r7,lr}
        0x00000dc2:    b091        ..      SUB      sp,sp,#0x44
        0x00000dc4:    460e        .F      MOV      r6,r1
        0x00000dc6:    4864        dH      LDR      r0,[pc,#400] ; [0xf58] = 0x3b9aca00
        0x00000dc8:    900e        ..      STR      r0,[sp,#0x38]
        0x00000dca:    2500        .%      MOVS     r5,#0
        0x00000dcc:    2000        .       MOVS     r0,#0
        0x00000dce:    900d        ..      STR      r0,[sp,#0x34]
        0x00000dd0:    900c        ..      STR      r0,[sp,#0x30]
        0x00000dd2:    2700        .'      MOVS     r7,#0
        0x00000dd4:    2400        .$      MOVS     r4,#0
        0x00000dd6:    900a        ..      STR      r0,[sp,#0x28]
        0x00000dd8:    9009        ..      STR      r0,[sp,#0x24]
        0x00000dda:    207d        }       MOVS     r0,#0x7d
        0x00000ddc:    00c0        ..      LSLS     r0,r0,#3
        0x00000dde:    9008        ..      STR      r0,[sp,#0x20]
        0x00000de0:    2000        .       MOVS     r0,#0
        0x00000de2:    9007        ..      STR      r0,[sp,#0x1c]
        0x00000de4:    bf00        ..      NOP      
        0x00000de6:    2001        .       MOVS     r0,#1
        0x00000de8:    9003        ..      STR      r0,[sp,#0xc]
        0x00000dea:    9811        ..      LDR      r0,[sp,#0x44]
        0x00000dec:    f7fffe0f    ....    BL       CAN_EnterInitMode ; 0xa0e
        0x00000df0:    f001fb2e    ....    BL       SystemCoreClockUpdate ; 0x2450
        0x00000df4:    f000fa96    ....    BL       CLK_GetPCLKFreq ; 0x1324
        0x00000df8:    2100        .!      MOVS     r1,#0
        0x00000dfa:    9105        ..      STR      r1,[sp,#0x14]
        0x00000dfc:    9004        ..      STR      r0,[sp,#0x10]
        0x00000dfe:    4857        WH      LDR      r0,[pc,#348] ; [0xf5c] = 0xf4240
        0x00000e00:    4286        .B      CMP      r6,r0
        0x00000e02:    d900        ..      BLS      0xe06 ; CAN_SetBaudRate + 70
        0x00000e04:    4606        .F      MOV      r6,r0
        0x00000e06:    4856        VH      LDR      r0,[pc,#344] ; [0xf60] = 0xc3500
        0x00000e08:    4286        .B      CMP      r6,r0
        0x00000e0a:    d902        ..      BLS      0xe12 ; CAN_SetBaudRate + 82
        0x00000e0c:    4855        UH      LDR      r0,[pc,#340] ; [0xf64] = 0x2ee
        0x00000e0e:    9006        ..      STR      r0,[sp,#0x18]
        0x00000e10:    e009        ..      B        0xe26 ; CAN_SetBaudRate + 102
        0x00000e12:    4855        UH      LDR      r0,[pc,#340] ; [0xf68] = 0x7a120
        0x00000e14:    4286        .B      CMP      r6,r0
        0x00000e16:    d903        ..      BLS      0xe20 ; CAN_SetBaudRate + 96
        0x00000e18:    2019        .       MOVS     r0,#0x19
        0x00000e1a:    0140        @.      LSLS     r0,r0,#5
        0x00000e1c:    9006        ..      STR      r0,[sp,#0x18]
        0x00000e1e:    e002        ..      B        0xe26 ; CAN_SetBaudRate + 102
        0x00000e20:    4850        PH      LDR      r0,[pc,#320] ; [0xf64] = 0x2ee
        0x00000e22:    307d        }0      ADDS     r0,r0,#0x7d
        0x00000e24:    9006        ..      STR      r0,[sp,#0x18]
        0x00000e26:    2431        1$      MOVS     r4,#0x31
        0x00000e28:    e053        S.      B        0xed2 ; CAN_SetBaudRate + 274
        0x00000e2a:    0860        `.      LSRS     r0,r4,#1
        0x00000e2c:    1c40        @.      ADDS     r0,r0,#1
        0x00000e2e:    900b        ..      STR      r0,[sp,#0x2c]
        0x00000e30:    980b        ..      LDR      r0,[sp,#0x2c]
        0x00000e32:    4370        pC      MULS     r0,r6,r0
        0x00000e34:    4602        .F      MOV      r2,r0
        0x00000e36:    2300        .#      MOVS     r3,#0
        0x00000e38:    9001        ..      STR      r0,[sp,#4]
        0x00000e3a:    9905        ..      LDR      r1,[sp,#0x14]
        0x00000e3c:    9804        ..      LDR      r0,[sp,#0x10]
        0x00000e3e:    f7fff9a9    ....    BL       __aeabi_uldivmod ; 0x194
        0x00000e42:    0fe1        ..      LSRS     r1,r4,#31
        0x00000e44:    1909        ..      ADDS     r1,r1,r4
        0x00000e46:    1049        I.      ASRS     r1,r1,#1
        0x00000e48:    0049        I.      LSLS     r1,r1,#1
        0x00000e4a:    1a61        a.      SUBS     r1,r4,r1
        0x00000e4c:    9402        ..      STR      r4,[sp,#8]
        0x00000e4e:    1847        G.      ADDS     r7,r0,r1
        0x00000e50:    bf00        ..      NOP      
        0x00000e52:    2f00        ./      CMP      r7,#0
        0x00000e54:    d003        ..      BEQ      0xe5e ; CAN_SetBaudRate + 158
        0x00000e56:    2001        .       MOVS     r0,#1
        0x00000e58:    0280        ..      LSLS     r0,r0,#10
        0x00000e5a:    4287        .B      CMP      r7,r0
        0x00000e5c:    d900        ..      BLS      0xe60 ; CAN_SetBaudRate + 160
        0x00000e5e:    e037        7.      B        0xed0 ; CAN_SetBaudRate + 272
        0x00000e60:    4638        8F      MOV      r0,r7
        0x00000e62:    990b        ..      LDR      r1,[sp,#0x2c]
        0x00000e64:    4348        HC      MULS     r0,r1,r0
        0x00000e66:    17c1        ..      ASRS     r1,r0,#31
        0x00000e68:    4602        .F      MOV      r2,r0
        0x00000e6a:    460b        .F      MOV      r3,r1
        0x00000e6c:    9101        ..      STR      r1,[sp,#4]
        0x00000e6e:    9000        ..      STR      r0,[sp,#0]
        0x00000e70:    9905        ..      LDR      r1,[sp,#0x14]
        0x00000e72:    9804        ..      LDR      r0,[sp,#0x10]
        0x00000e74:    f7fff98e    ....    BL       __aeabi_uldivmod ; 0x194
        0x00000e78:    900f        ..      STR      r0,[sp,#0x3c]
        0x00000e7a:    980f        ..      LDR      r0,[sp,#0x3c]
        0x00000e7c:    1a35        5.      SUBS     r5,r6,r0
        0x00000e7e:    2d00        .-      CMP      r5,#0
        0x00000e80:    da00        ..      BGE      0xe84 ; CAN_SetBaudRate + 196
        0x00000e82:    426d        mB      RSBS     r5,r5,#0
        0x00000e84:    980e        ..      LDR      r0,[sp,#0x38]
        0x00000e86:    4285        .B      CMP      r5,r0
        0x00000e88:    dd00        ..      BLE      0xe8c ; CAN_SetBaudRate + 204
        0x00000e8a:    e021        !.      B        0xed0 ; CAN_SetBaudRate + 272
        0x00000e8c:    950e        ..      STR      r5,[sp,#0x38]
        0x00000e8e:    2d00        .-      CMP      r5,#0
        0x00000e90:    d114        ..      BNE      0xebc ; CAN_SetBaudRate + 252
        0x00000e92:    0fe0        ..      LSRS     r0,r4,#31
        0x00000e94:    1900        ..      ADDS     r0,r0,r4
        0x00000e96:    1041        A.      ASRS     r1,r0,#1
        0x00000e98:    ab09        ..      ADD      r3,sp,#0x24
        0x00000e9a:    aa0a        ..      ADD      r2,sp,#0x28
        0x00000e9c:    9402        ..      STR      r4,[sp,#8]
        0x00000e9e:    9806        ..      LDR      r0,[sp,#0x18]
        0x00000ea0:    f001ffe1    ....    BL       can_update_spt ; 0x2e66
        0x00000ea4:    9007        ..      STR      r0,[sp,#0x1c]
        0x00000ea6:    9907        ..      LDR      r1,[sp,#0x1c]
        0x00000ea8:    9806        ..      LDR      r0,[sp,#0x18]
        0x00000eaa:    1a45        E.      SUBS     r5,r0,r1
        0x00000eac:    2d00        .-      CMP      r5,#0
        0x00000eae:    da00        ..      BGE      0xeb2 ; CAN_SetBaudRate + 242
        0x00000eb0:    426d        mB      RSBS     r5,r5,#0
        0x00000eb2:    9808        ..      LDR      r0,[sp,#0x20]
        0x00000eb4:    4285        .B      CMP      r5,r0
        0x00000eb6:    dd00        ..      BLE      0xeba ; CAN_SetBaudRate + 250
        0x00000eb8:    e00a        ..      B        0xed0 ; CAN_SetBaudRate + 272
        0x00000eba:    9508        ..      STR      r5,[sp,#0x20]
        0x00000ebc:    4620         F      MOV      r0,r4
        0x00000ebe:    0fe1        ..      LSRS     r1,r4,#31
        0x00000ec0:    1809        ..      ADDS     r1,r1,r0
        0x00000ec2:    1049        I.      ASRS     r1,r1,#1
        0x00000ec4:    910d        ..      STR      r1,[sp,#0x34]
        0x00000ec6:    970c        ..      STR      r7,[sp,#0x30]
        0x00000ec8:    2d00        .-      CMP      r5,#0
        0x00000eca:    d100        ..      BNE      0xece ; CAN_SetBaudRate + 270
        0x00000ecc:    e003        ..      B        0xed6 ; CAN_SetBaudRate + 278
        0x00000ece:    bf00        ..      NOP      
        0x00000ed0:    1e64        d.      SUBS     r4,r4,#1
        0x00000ed2:    2c06        .,      CMP      r4,#6
        0x00000ed4:    d2a9        ..      BCS      0xe2a ; CAN_SetBaudRate + 106
        0x00000ed6:    bf00        ..      NOP      
        0x00000ed8:    ab09        ..      ADD      r3,sp,#0x24
        0x00000eda:    aa0a        ..      ADD      r2,sp,#0x28
        0x00000edc:    990d        ..      LDR      r1,[sp,#0x34]
        0x00000ede:    9806        ..      LDR      r0,[sp,#0x18]
        0x00000ee0:    f001ffc1    ....    BL       can_update_spt ; 0x2e66
        0x00000ee4:    9007        ..      STR      r0,[sp,#0x1c]
        0x00000ee6:    9803        ..      LDR      r0,[sp,#0xc]
        0x00000ee8:    2804        .(      CMP      r0,#4
        0x00000eea:    d901        ..      BLS      0xef0 ; CAN_SetBaudRate + 304
        0x00000eec:    2004        .       MOVS     r0,#4
        0x00000eee:    9003        ..      STR      r0,[sp,#0xc]
        0x00000ef0:    9909        ..      LDR      r1,[sp,#0x24]
        0x00000ef2:    9803        ..      LDR      r0,[sp,#0xc]
        0x00000ef4:    4281        .B      CMP      r1,r0
        0x00000ef6:    d201        ..      BCS      0xefc ; CAN_SetBaudRate + 316
        0x00000ef8:    9809        ..      LDR      r0,[sp,#0x24]
        0x00000efa:    9003        ..      STR      r0,[sp,#0xc]
        0x00000efc:    9909        ..      LDR      r1,[sp,#0x24]
        0x00000efe:    980a        ..      LDR      r0,[sp,#0x28]
        0x00000f00:    1840        @.      ADDS     r0,r0,r1
        0x00000f02:    1c40        @.      ADDS     r0,r0,#1
        0x00000f04:    990c        ..      LDR      r1,[sp,#0x30]
        0x00000f06:    4348        HC      MULS     r0,r1,r0
        0x00000f08:    17c1        ..      ASRS     r1,r0,#31
        0x00000f0a:    4602        .F      MOV      r2,r0
        0x00000f0c:    460b        .F      MOV      r3,r1
        0x00000f0e:    9101        ..      STR      r1,[sp,#4]
        0x00000f10:    9000        ..      STR      r0,[sp,#0]
        0x00000f12:    9905        ..      LDR      r1,[sp,#0x14]
        0x00000f14:    9804        ..      LDR      r0,[sp,#0x10]
        0x00000f16:    f7fff93d    ..=.    BL       __aeabi_uldivmod ; 0x194
        0x00000f1a:    4606        .F      MOV      r6,r0
        0x00000f1c:    9809        ..      LDR      r0,[sp,#0x24]
        0x00000f1e:    1e40        @.      SUBS     r0,r0,#1
        0x00000f20:    0300        ..      LSLS     r0,r0,#12
        0x00000f22:    990a        ..      LDR      r1,[sp,#0x28]
        0x00000f24:    1e49        I.      SUBS     r1,r1,#1
        0x00000f26:    0209        ..      LSLS     r1,r1,#8
        0x00000f28:    4308        .C      ORRS     r0,r0,r1
        0x00000f2a:    990c        ..      LDR      r1,[sp,#0x30]
        0x00000f2c:    1e49        I.      SUBS     r1,r1,#1
        0x00000f2e:    0689        ..      LSLS     r1,r1,#26
        0x00000f30:    0e89        ..      LSRS     r1,r1,#26
        0x00000f32:    4308        .C      ORRS     r0,r0,r1
        0x00000f34:    9903        ..      LDR      r1,[sp,#0xc]
        0x00000f36:    0189        ..      LSLS     r1,r1,#6
        0x00000f38:    4308        .C      ORRS     r0,r0,r1
        0x00000f3a:    9911        ..      LDR      r1,[sp,#0x44]
        0x00000f3c:    60c8        .`      STR      r0,[r1,#0xc]
        0x00000f3e:    980c        ..      LDR      r0,[sp,#0x30]
        0x00000f40:    1e40        @.      SUBS     r0,r0,#1
        0x00000f42:    0580        ..      LSLS     r0,r0,#22
        0x00000f44:    0f01        ..      LSRS     r1,r0,#28
        0x00000f46:    9811        ..      LDR      r0,[sp,#0x44]
        0x00000f48:    6181        .a      STR      r1,[r0,#0x18]
        0x00000f4a:    9811        ..      LDR      r0,[sp,#0x44]
        0x00000f4c:    f7fffe12    ....    BL       CAN_LeaveInitMode ; 0xb74
        0x00000f50:    4630        0F      MOV      r0,r6
        0x00000f52:    b013        ..      ADD      sp,sp,#0x4c
        0x00000f54:    bdf0        ..      POP      {r4-r7,pc}
    $d
        0x00000f56:    0000        ..      DCW    0
        0x00000f58:    3b9aca00    ...;    DCD    1000000000
        0x00000f5c:    000f4240    @B..    DCD    1000000
        0x00000f60:    000c3500    .5..    DCD    800000
        0x00000f64:    000002ee    ....    DCD    750
        0x00000f68:    0007a120     ...    DCD    500000
    $t
    i.CAN_SetTxMsg
    CAN_SetTxMsg
        0x00000f6c:    b5f7        ..      PUSH     {r0-r2,r4-r7,lr}
        0x00000f6e:    4604        .F      MOV      r4,r0
        0x00000f70:    4615        .F      MOV      r5,r2
        0x00000f72:    2600        .&      MOVS     r6,#0
        0x00000f74:    2700        .'      MOVS     r7,#0
        0x00000f76:    e006        ..      B        0xf86 ; CAN_SetTxMsg + 26
        0x00000f78:    1c7f        ..      ADDS     r7,r7,#1
        0x00000f7a:    2001        .       MOVS     r0,#1
        0x00000f7c:    0700        ..      LSLS     r0,r0,#28
        0x00000f7e:    4287        .B      CMP      r7,r0
        0x00000f80:    d901        ..      BLS      0xf86 ; CAN_SetTxMsg + 26
        0x00000f82:    2000        .       MOVS     r0,#0
        0x00000f84:    bdfe        ..      POP      {r1-r7,pc}
        0x00000f86:    4620         F      MOV      r0,r4
        0x00000f88:    f000fe49    ..I.    BL       GetFreeIF ; 0x1c1e
        0x00000f8c:    b2c0        ..      UXTB     r0,r0
        0x00000f8e:    4606        .F      MOV      r6,r0
        0x00000f90:    2802        .(      CMP      r0,#2
        0x00000f92:    d0f1        ..      BEQ      0xf78 ; CAN_SetTxMsg + 12
        0x00000f94:    21f3        .!      MOVS     r1,#0xf3
        0x00000f96:    2060        `       MOVS     r0,#0x60
        0x00000f98:    4370        pC      MULS     r0,r6,r0
        0x00000f9a:    4622        "F      MOV      r2,r4
        0x00000f9c:    3220         2      ADDS     r2,r2,#0x20
        0x00000f9e:    1880        ..      ADDS     r0,r0,r2
        0x00000fa0:    6041        A`      STR      r1,[r0,#4]
        0x00000fa2:    7828        (x      LDRB     r0,[r5,#0]
        0x00000fa4:    2800        .(      CMP      r0,#0
        0x00000fa6:    d111        ..      BNE      0xfcc ; CAN_SetTxMsg + 96
        0x00000fa8:    2100        .!      MOVS     r1,#0
        0x00000faa:    2060        `       MOVS     r0,#0x60
        0x00000fac:    4370        pC      MULS     r0,r6,r0
        0x00000fae:    1880        ..      ADDS     r0,r0,r2
        0x00000fb0:    6101        .a      STR      r1,[r0,#0x10]
        0x00000fb2:    88a8        ..      LDRH     r0,[r5,#4]
        0x00000fb4:    0540        @.      LSLS     r0,r0,#21
        0x00000fb6:    0cc0        ..      LSRS     r0,r0,#19
        0x00000fb8:    2101        .!      MOVS     r1,#1
        0x00000fba:    0349        I.      LSLS     r1,r1,#13
        0x00000fbc:    1840        @.      ADDS     r0,r0,r1
        0x00000fbe:    0089        ..      LSLS     r1,r1,#2
        0x00000fc0:    1841        A.      ADDS     r1,r0,r1
        0x00000fc2:    2060        `       MOVS     r0,#0x60
        0x00000fc4:    4370        pC      MULS     r0,r6,r0
        0x00000fc6:    1880        ..      ADDS     r0,r0,r2
        0x00000fc8:    6141        Aa      STR      r1,[r0,#0x14]
        0x00000fca:    e016        ..      B        0xffa ; CAN_SetTxMsg + 142
        0x00000fcc:    88a8        ..      LDRH     r0,[r5,#4]
        0x00000fce:    b281        ..      UXTH     r1,r0
        0x00000fd0:    2060        `       MOVS     r0,#0x60
        0x00000fd2:    4370        pC      MULS     r0,r6,r0
        0x00000fd4:    4622        "F      MOV      r2,r4
        0x00000fd6:    3220         2      ADDS     r2,r2,#0x20
        0x00000fd8:    1880        ..      ADDS     r0,r0,r2
        0x00000fda:    6101        .a      STR      r1,[r0,#0x10]
        0x00000fdc:    4930        0I      LDR      r1,[pc,#192] ; [0x10a0] = 0x1fff0000
        0x00000fde:    6868        hh      LDR      r0,[r5,#4]
        0x00000fe0:    4008        .@      ANDS     r0,r0,r1
        0x00000fe2:    0c00        ..      LSRS     r0,r0,#16
        0x00000fe4:    2101        .!      MOVS     r1,#1
        0x00000fe6:    0349        I.      LSLS     r1,r1,#13
        0x00000fe8:    1840        @.      ADDS     r0,r0,r1
        0x00000fea:    0049        I.      LSLS     r1,r1,#1
        0x00000fec:    4308        .C      ORRS     r0,r0,r1
        0x00000fee:    0049        I.      LSLS     r1,r1,#1
        0x00000ff0:    1841        A.      ADDS     r1,r0,r1
        0x00000ff2:    2060        `       MOVS     r0,#0x60
        0x00000ff4:    4370        pC      MULS     r0,r6,r0
        0x00000ff6:    1880        ..      ADDS     r0,r0,r2
        0x00000ff8:    6141        Aa      STR      r1,[r0,#0x14]
        0x00000ffa:    7868        hx      LDRB     r0,[r5,#1]
        0x00000ffc:    2800        .(      CMP      r0,#0
        0x00000ffe:    d00f        ..      BEQ      0x1020 ; CAN_SetTxMsg + 180
        0x00001000:    2060        `       MOVS     r0,#0x60
        0x00001002:    4370        pC      MULS     r0,r6,r0
        0x00001004:    4621        !F      MOV      r1,r4
        0x00001006:    3120         1      ADDS     r1,r1,#0x20
        0x00001008:    1840        @.      ADDS     r0,r0,r1
        0x0000100a:    6940        @i      LDR      r0,[r0,#0x14]
        0x0000100c:    2101        .!      MOVS     r1,#1
        0x0000100e:    0349        I.      LSLS     r1,r1,#13
        0x00001010:    4308        .C      ORRS     r0,r0,r1
        0x00001012:    2160        `!      MOVS     r1,#0x60
        0x00001014:    4371        qC      MULS     r1,r6,r1
        0x00001016:    4622        "F      MOV      r2,r4
        0x00001018:    3220         2      ADDS     r2,r2,#0x20
        0x0000101a:    1889        ..      ADDS     r1,r1,r2
        0x0000101c:    6148        Ha      STR      r0,[r1,#0x14]
        0x0000101e:    e00e        ..      B        0x103e ; CAN_SetTxMsg + 210
        0x00001020:    2060        `       MOVS     r0,#0x60
        0x00001022:    4370        pC      MULS     r0,r6,r0
        0x00001024:    4621        !F      MOV      r1,r4
        0x00001026:    3120         1      ADDS     r1,r1,#0x20
        0x00001028:    1840        @.      ADDS     r0,r0,r1
        0x0000102a:    6940        @i      LDR      r0,[r0,#0x14]
        0x0000102c:    2101        .!      MOVS     r1,#1
        0x0000102e:    0349        I.      LSLS     r1,r1,#13
        0x00001030:    4388        .C      BICS     r0,r0,r1
        0x00001032:    2160        `!      MOVS     r1,#0x60
        0x00001034:    4371        qC      MULS     r1,r6,r1
        0x00001036:    4622        "F      MOV      r2,r4
        0x00001038:    3220         2      ADDS     r2,r2,#0x20
        0x0000103a:    1889        ..      ADDS     r1,r1,r2
        0x0000103c:    6148        Ha      STR      r0,[r1,#0x14]
        0x0000103e:    7a68        hz      LDRB     r0,[r5,#9]
        0x00001040:    0200        ..      LSLS     r0,r0,#8
        0x00001042:    7a29        )z      LDRB     r1,[r5,#8]
        0x00001044:    4308        .C      ORRS     r0,r0,r1
        0x00001046:    2160        `!      MOVS     r1,#0x60
        0x00001048:    4371        qC      MULS     r1,r6,r1
        0x0000104a:    4622        "F      MOV      r2,r4
        0x0000104c:    3220         2      ADDS     r2,r2,#0x20
        0x0000104e:    1889        ..      ADDS     r1,r1,r2
        0x00001050:    61c8        .a      STR      r0,[r1,#0x1c]
        0x00001052:    7ae8        .z      LDRB     r0,[r5,#0xb]
        0x00001054:    0200        ..      LSLS     r0,r0,#8
        0x00001056:    7aa9        .z      LDRB     r1,[r5,#0xa]
        0x00001058:    4308        .C      ORRS     r0,r0,r1
        0x0000105a:    2160        `!      MOVS     r1,#0x60
        0x0000105c:    4371        qC      MULS     r1,r6,r1
        0x0000105e:    1889        ..      ADDS     r1,r1,r2
        0x00001060:    6208        .b      STR      r0,[r1,#0x20]
        0x00001062:    7b68        h{      LDRB     r0,[r5,#0xd]
        0x00001064:    0200        ..      LSLS     r0,r0,#8
        0x00001066:    7b29        ){      LDRB     r1,[r5,#0xc]
        0x00001068:    4308        .C      ORRS     r0,r0,r1
        0x0000106a:    2160        `!      MOVS     r1,#0x60
        0x0000106c:    4371        qC      MULS     r1,r6,r1
        0x0000106e:    1889        ..      ADDS     r1,r1,r2
        0x00001070:    6248        Hb      STR      r0,[r1,#0x24]
        0x00001072:    7be8        .{      LDRB     r0,[r5,#0xf]
        0x00001074:    0200        ..      LSLS     r0,r0,#8
        0x00001076:    7ba9        .{      LDRB     r1,[r5,#0xe]
        0x00001078:    4308        .C      ORRS     r0,r0,r1
        0x0000107a:    2160        `!      MOVS     r1,#0x60
        0x0000107c:    4371        qC      MULS     r1,r6,r1
        0x0000107e:    1889        ..      ADDS     r1,r1,r2
        0x00001080:    6288        .b      STR      r0,[r1,#0x28]
        0x00001082:    78a8        .x      LDRB     r0,[r5,#2]
        0x00001084:    4907        .I      LDR      r1,[pc,#28] ; [0x10a4] = 0x8880
        0x00001086:    4308        .C      ORRS     r0,r0,r1
        0x00001088:    2160        `!      MOVS     r1,#0x60
        0x0000108a:    4371        qC      MULS     r1,r6,r1
        0x0000108c:    1889        ..      ADDS     r1,r1,r2
        0x0000108e:    6188        .a      STR      r0,[r1,#0x18]
        0x00001090:    9801        ..      LDR      r0,[sp,#4]
        0x00001092:    1c40        @.      ADDS     r0,r0,#1
        0x00001094:    2160        `!      MOVS     r1,#0x60
        0x00001096:    4371        qC      MULS     r1,r6,r1
        0x00001098:    5050        PP      STR      r0,[r2,r1]
        0x0000109a:    2001        .       MOVS     r0,#1
        0x0000109c:    e772        r.      B        0xf84 ; CAN_SetTxMsg + 24
    $d
        0x0000109e:    0000        ..      DCW    0
        0x000010a0:    1fff0000    ....    DCD    536805376
        0x000010a4:    00008880    ....    DCD    34944
    $t
    i.CAN_TriggerQueueSend
    CAN_TriggerQueueSend
        0x000010a8:    b510        ..      PUSH     {r4,lr}
        0x000010aa:    4604        .F      MOV      r4,r0
        0x000010ac:    4620         F      MOV      r0,r4
        0x000010ae:    f7fffd9f    ....    BL       CAN_NormalModeTx ; 0xbf0
        0x000010b2:    bd10        ..      POP      {r4,pc}
    i.CAN_TriggerTxMsg
    CAN_TriggerTxMsg
        0x000010b4:    4602        .F      MOV      r2,r0
        0x000010b6:    6850        Ph      LDR      r0,[r2,#4]
        0x000010b8:    2308        .#      MOVS     r3,#8
        0x000010ba:    4398        .C      BICS     r0,r0,r3
        0x000010bc:    6050        P`      STR      r0,[r2,#4]
        0x000010be:    230c        .#      MOVS     r3,#0xc
        0x000010c0:    2084        .       MOVS     r0,#0x84
        0x000010c2:    5083        .P      STR      r3,[r0,r2]
        0x000010c4:    1c48        H.      ADDS     r0,r1,#1
        0x000010c6:    2380        .#      MOVS     r3,#0x80
        0x000010c8:    5098        .P      STR      r0,[r3,r2]
        0x000010ca:    bf00        ..      NOP      
        0x000010cc:    2080        .       MOVS     r0,#0x80
        0x000010ce:    5880        .X      LDR      r0,[r0,r2]
        0x000010d0:    2301        .#      MOVS     r3,#1
        0x000010d2:    03db        ..      LSLS     r3,r3,#15
        0x000010d4:    4018        .@      ANDS     r0,r0,r3
        0x000010d6:    2800        .(      CMP      r0,#0
        0x000010d8:    d1f8        ..      BNE      0x10cc ; CAN_TriggerTxMsg + 24
        0x000010da:    2384        .#      MOVS     r3,#0x84
        0x000010dc:    6253        Sb      STR      r3,[r2,#0x24]
        0x000010de:    1c48        H.      ADDS     r0,r1,#1
        0x000010e0:    6210        .b      STR      r0,[r2,#0x20]
        0x000010e2:    2001        .       MOVS     r0,#1
        0x000010e4:    4770        pG      BX       lr
        0x000010e6:    0000        ..      MOVS     r0,r0
    i.CLK_DisableModuleClock
    CLK_DisableModuleClock
        0x000010e8:    b51f        ..      PUSH     {r0-r4,lr}
        0x000010ea:    4c0c        .L      LDR      r4,[pc,#48] ; [0x111c] = 0x3488
        0x000010ec:    cc1e        ..      LDM      r4,{r1-r4}
        0x000010ee:    9403        ..      STR      r4,[sp,#0xc]
        0x000010f0:    466c        lF      MOV      r4,sp
        0x000010f2:    c40e        ..      STM      r4!,{r1-r3}
        0x000010f4:    0f81        ..      LSRS     r1,r0,#30
        0x000010f6:    0089        ..      LSLS     r1,r1,#2
        0x000010f8:    466a        jF      MOV      r2,sp
        0x000010fa:    5851        QX      LDR      r1,[r2,r1]
        0x000010fc:    4a08        .J      LDR      r2,[pc,#32] ; [0x1120] = 0x50000200
        0x000010fe:    1889        ..      ADDS     r1,r1,r2
        0x00001100:    684a        Jh      LDR      r2,[r1,#4]
        0x00001102:    06c3        ..      LSLS     r3,r0,#27
        0x00001104:    0edb        ..      LSRS     r3,r3,#27
        0x00001106:    2101        .!      MOVS     r1,#1
        0x00001108:    4099        .@      LSLS     r1,r1,r3
        0x0000110a:    438a        .C      BICS     r2,r2,r1
        0x0000110c:    0f81        ..      LSRS     r1,r0,#30
        0x0000110e:    0089        ..      LSLS     r1,r1,#2
        0x00001110:    466b        kF      MOV      r3,sp
        0x00001112:    5859        YX      LDR      r1,[r3,r1]
        0x00001114:    4b02        .K      LDR      r3,[pc,#8] ; [0x1120] = 0x50000200
        0x00001116:    18c9        ..      ADDS     r1,r1,r3
        0x00001118:    604a        J`      STR      r2,[r1,#4]
        0x0000111a:    bd1f        ..      POP      {r0-r4,pc}
    $d
        0x0000111c:    00003488    .4..    DCD    13448
        0x00001120:    50000200    ...P    DCD    1342177792
    $t
    i.CLK_EnableCKO
    CLK_EnableCKO
        0x00001124:    b570        p.      PUSH     {r4-r6,lr}
        0x00001126:    4604        .F      MOV      r4,r0
        0x00001128:    460d        .F      MOV      r5,r1
        0x0000112a:    4616        .F      MOV      r6,r2
        0x0000112c:    4628        (F      MOV      r0,r5
        0x0000112e:    2110        .!      MOVS     r1,#0x10
        0x00001130:    4308        .C      ORRS     r0,r0,r1
        0x00001132:    0171        q.      LSLS     r1,r6,#5
        0x00001134:    4308        .C      ORRS     r0,r0,r1
        0x00001136:    4905        .I      LDR      r1,[pc,#20] ; [0x114c] = 0x50000200
        0x00001138:    6248        Hb      STR      r0,[r1,#0x24]
        0x0000113a:    4805        .H      LDR      r0,[pc,#20] ; [0x1150] = 0x66200006
        0x0000113c:    f000f80a    ....    BL       CLK_EnableModuleClock ; 0x1154
        0x00001140:    2200        ."      MOVS     r2,#0
        0x00001142:    4621        !F      MOV      r1,r4
        0x00001144:    4802        .H      LDR      r0,[pc,#8] ; [0x1150] = 0x66200006
        0x00001146:    f000faa5    ....    BL       CLK_SetModuleClock ; 0x1694
        0x0000114a:    bd70        p.      POP      {r4-r6,pc}
    $d
        0x0000114c:    50000200    ...P    DCD    1342177792
        0x00001150:    66200006    .. f    DCD    1713373190
    $t
    i.CLK_EnableModuleClock
    CLK_EnableModuleClock
        0x00001154:    b51f        ..      PUSH     {r0-r4,lr}
        0x00001156:    4c0c        .L      LDR      r4,[pc,#48] ; [0x1188] = 0x3478
        0x00001158:    cc1e        ..      LDM      r4,{r1-r4}
        0x0000115a:    9403        ..      STR      r4,[sp,#0xc]
        0x0000115c:    466c        lF      MOV      r4,sp
        0x0000115e:    c40e        ..      STM      r4!,{r1-r3}
        0x00001160:    0f81        ..      LSRS     r1,r0,#30
        0x00001162:    0089        ..      LSLS     r1,r1,#2
        0x00001164:    466a        jF      MOV      r2,sp
        0x00001166:    5851        QX      LDR      r1,[r2,r1]
        0x00001168:    4a08        .J      LDR      r2,[pc,#32] ; [0x118c] = 0x50000200
        0x0000116a:    1889        ..      ADDS     r1,r1,r2
        0x0000116c:    6849        Ih      LDR      r1,[r1,#4]
        0x0000116e:    06c3        ..      LSLS     r3,r0,#27
        0x00001170:    0edb        ..      LSRS     r3,r3,#27
        0x00001172:    2201        ."      MOVS     r2,#1
        0x00001174:    409a        .@      LSLS     r2,r2,r3
        0x00001176:    4311        .C      ORRS     r1,r1,r2
        0x00001178:    0f82        ..      LSRS     r2,r0,#30
        0x0000117a:    0092        ..      LSLS     r2,r2,#2
        0x0000117c:    466b        kF      MOV      r3,sp
        0x0000117e:    589a        .X      LDR      r2,[r3,r2]
        0x00001180:    4b02        .K      LDR      r3,[pc,#8] ; [0x118c] = 0x50000200
        0x00001182:    18d2        ..      ADDS     r2,r2,r3
        0x00001184:    6051        Q`      STR      r1,[r2,#4]
        0x00001186:    bd1f        ..      POP      {r0-r4,pc}
    $d
        0x00001188:    00003478    x4..    DCD    13432
        0x0000118c:    50000200    ...P    DCD    1342177792
    $t
    i.CLK_EnablePLL
    CLK_EnablePLL
        0x00001190:    b5f3        ..      PUSH     {r0,r1,r4-r7,lr}
        0x00001192:    b089        ..      SUB      sp,sp,#0x24
        0x00001194:    460c        .F      MOV      r4,r1
        0x00001196:    2001        .       MOVS     r0,#1
        0x00001198:    0400        ..      LSLS     r0,r0,#16
        0x0000119a:    4953        SI      LDR      r1,[pc,#332] ; [0x12e8] = 0x50000200
        0x0000119c:    6208        .b      STR      r0,[r1,#0x20]
        0x0000119e:    9809        ..      LDR      r0,[sp,#0x24]
        0x000011a0:    2800        .(      CMP      r0,#0
        0x000011a2:    d10e        ..      BNE      0x11c2 ; CLK_EnablePLL + 50
        0x000011a4:    4608        .F      MOV      r0,r1
        0x000011a6:    6800        .h      LDR      r0,[r0,#0]
        0x000011a8:    2101        .!      MOVS     r1,#1
        0x000011aa:    4308        .C      ORRS     r0,r0,r1
        0x000011ac:    494e        NI      LDR      r1,[pc,#312] ; [0x12e8] = 0x50000200
        0x000011ae:    6008        .`      STR      r0,[r1,#0]
        0x000011b0:    2001        .       MOVS     r0,#1
        0x000011b2:    f000faf3    ....    BL       CLK_WaitClockReady ; 0x179c
        0x000011b6:    2000        .       MOVS     r0,#0
        0x000011b8:    9006        ..      STR      r0,[sp,#0x18]
        0x000011ba:    484c        LH      LDR      r0,[pc,#304] ; [0x12ec] = 0xb71b00
        0x000011bc:    9008        ..      STR      r0,[sp,#0x20]
        0x000011be:    2502        .%      MOVS     r5,#2
        0x000011c0:    e00e        ..      B        0x11e0 ; CLK_EnablePLL + 80
        0x000011c2:    4849        IH      LDR      r0,[pc,#292] ; [0x12e8] = 0x50000200
        0x000011c4:    6800        .h      LDR      r0,[r0,#0]
        0x000011c6:    2104        .!      MOVS     r1,#4
        0x000011c8:    4308        .C      ORRS     r0,r0,r1
        0x000011ca:    4947        GI      LDR      r1,[pc,#284] ; [0x12e8] = 0x50000200
        0x000011cc:    6008        .`      STR      r0,[r1,#0]
        0x000011ce:    2010        .       MOVS     r0,#0x10
        0x000011d0:    f000fae4    ....    BL       CLK_WaitClockReady ; 0x179c
        0x000011d4:    2001        .       MOVS     r0,#1
        0x000011d6:    04c0        ..      LSLS     r0,r0,#19
        0x000011d8:    9006        ..      STR      r0,[sp,#0x18]
        0x000011da:    4845        EH      LDR      r0,[pc,#276] ; [0x12f0] = 0x1518000
        0x000011dc:    9008        ..      STR      r0,[sp,#0x20]
        0x000011de:    2504        .%      MOVS     r5,#4
        0x000011e0:    4844        DH      LDR      r0,[pc,#272] ; [0x12f4] = 0xbebc200
        0x000011e2:    4284        .B      CMP      r4,r0
        0x000011e4:    d804        ..      BHI      0x11f0 ; CLK_EnablePLL + 96
        0x000011e6:    1040        @.      ASRS     r0,r0,#1
        0x000011e8:    4284        .B      CMP      r4,r0
        0x000011ea:    d901        ..      BLS      0x11f0 ; CLK_EnablePLL + 96
        0x000011ec:    2700        .'      MOVS     r7,#0
        0x000011ee:    e012        ..      B        0x1216 ; CLK_EnablePLL + 134
        0x000011f0:    4841        AH      LDR      r0,[pc,#260] ; [0x12f8] = 0x5f5e100
        0x000011f2:    4284        .B      CMP      r4,r0
        0x000011f4:    d805        ..      BHI      0x1202 ; CLK_EnablePLL + 114
        0x000011f6:    1040        @.      ASRS     r0,r0,#1
        0x000011f8:    4284        .B      CMP      r4,r0
        0x000011fa:    d902        ..      BLS      0x1202 ; CLK_EnablePLL + 114
        0x000011fc:    2701        .'      MOVS     r7,#1
        0x000011fe:    0064        d.      LSLS     r4,r4,#1
        0x00001200:    e009        ..      B        0x1216 ; CLK_EnablePLL + 134
        0x00001202:    483e        >H      LDR      r0,[pc,#248] ; [0x12fc] = 0x2faf080
        0x00001204:    4284        .B      CMP      r4,r0
        0x00001206:    d805        ..      BHI      0x1214 ; CLK_EnablePLL + 132
        0x00001208:    1040        @.      ASRS     r0,r0,#1
        0x0000120a:    4284        .B      CMP      r4,r0
        0x0000120c:    d302        ..      BCC      0x1214 ; CLK_EnablePLL + 132
        0x0000120e:    2703        .'      MOVS     r7,#3
        0x00001210:    00a4        ..      LSLS     r4,r4,#2
        0x00001212:    e000        ..      B        0x1216 ; CLK_EnablePLL + 134
        0x00001214:    e057        W.      B        0x12c6 ; CLK_EnablePLL + 310
        0x00001216:    2000        .       MOVS     r0,#0
        0x00001218:    43c0        .C      MVNS     r0,r0
        0x0000121a:    9003        ..      STR      r0,[sp,#0xc]
        0x0000121c:    2000        .       MOVS     r0,#0
        0x0000121e:    9001        ..      STR      r0,[sp,#4]
        0x00001220:    9002        ..      STR      r0,[sp,#8]
        0x00001222:    e034        4.      B        0x128e ; CLK_EnablePLL + 254
        0x00001224:    4629        )F      MOV      r1,r5
        0x00001226:    9808        ..      LDR      r0,[sp,#0x20]
        0x00001228:    f7feff8a    ....    BL       __aeabi_uidiv ; 0x140
        0x0000122c:    9005        ..      STR      r0,[sp,#0x14]
        0x0000122e:    4934        4I      LDR      r1,[pc,#208] ; [0x1300] = 0x186a00
        0x00001230:    9805        ..      LDR      r0,[sp,#0x14]
        0x00001232:    4288        .B      CMP      r0,r1
        0x00001234:    d92a        *.      BLS      0x128c ; CLK_EnablePLL + 252
        0x00001236:    4933        3I      LDR      r1,[pc,#204] ; [0x1304] = 0xe4e1c0
        0x00001238:    9805        ..      LDR      r0,[sp,#0x14]
        0x0000123a:    4288        .B      CMP      r0,r1
        0x0000123c:    d226        &.      BCS      0x128c ; CLK_EnablePLL + 252
        0x0000123e:    2002        .       MOVS     r0,#2
        0x00001240:    9007        ..      STR      r0,[sp,#0x1c]
        0x00001242:    e01e        ..      B        0x1282 ; CLK_EnablePLL + 242
        0x00001244:    9e05        ..      LDR      r6,[sp,#0x14]
        0x00001246:    9907        ..      LDR      r1,[sp,#0x1c]
        0x00001248:    434e        NC      MULS     r6,r1,r6
        0x0000124a:    482b        +H      LDR      r0,[pc,#172] ; [0x12f8] = 0x5f5e100
        0x0000124c:    4286        .B      CMP      r6,r0
        0x0000124e:    d315        ..      BCC      0x127c ; CLK_EnablePLL + 236
        0x00001250:    0040        @.      LSLS     r0,r0,#1
        0x00001252:    4286        .B      CMP      r6,r0
        0x00001254:    d812        ..      BHI      0x127c ; CLK_EnablePLL + 236
        0x00001256:    42a6        .B      CMP      r6,r4
        0x00001258:    d901        ..      BLS      0x125e ; CLK_EnablePLL + 206
        0x0000125a:    1b30        0.      SUBS     r0,r6,r4
        0x0000125c:    e000        ..      B        0x1260 ; CLK_EnablePLL + 208
        0x0000125e:    1ba0        ..      SUBS     r0,r4,r6
        0x00001260:    9004        ..      STR      r0,[sp,#0x10]
        0x00001262:    9903        ..      LDR      r1,[sp,#0xc]
        0x00001264:    9804        ..      LDR      r0,[sp,#0x10]
        0x00001266:    4288        .B      CMP      r0,r1
        0x00001268:    d208        ..      BCS      0x127c ; CLK_EnablePLL + 236
        0x0000126a:    9804        ..      LDR      r0,[sp,#0x10]
        0x0000126c:    9003        ..      STR      r0,[sp,#0xc]
        0x0000126e:    9501        ..      STR      r5,[sp,#4]
        0x00001270:    9807        ..      LDR      r0,[sp,#0x1c]
        0x00001272:    9002        ..      STR      r0,[sp,#8]
        0x00001274:    9803        ..      LDR      r0,[sp,#0xc]
        0x00001276:    2800        .(      CMP      r0,#0
        0x00001278:    d100        ..      BNE      0x127c ; CLK_EnablePLL + 236
        0x0000127a:    e006        ..      B        0x128a ; CLK_EnablePLL + 250
        0x0000127c:    9807        ..      LDR      r0,[sp,#0x1c]
        0x0000127e:    1c40        @.      ADDS     r0,r0,#1
        0x00001280:    9007        ..      STR      r0,[sp,#0x1c]
        0x00001282:    4921        !I      LDR      r1,[pc,#132] ; [0x1308] = 0x201
        0x00001284:    9807        ..      LDR      r0,[sp,#0x1c]
        0x00001286:    4288        .B      CMP      r0,r1
        0x00001288:    d9dc        ..      BLS      0x1244 ; CLK_EnablePLL + 180
        0x0000128a:    bf00        ..      NOP      
        0x0000128c:    1c6d        m.      ADDS     r5,r5,#1
        0x0000128e:    2d21        !-      CMP      r5,#0x21
        0x00001290:    d9c8        ..      BLS      0x1224 ; CLK_EnablePLL + 148
        0x00001292:    03b8        ..      LSLS     r0,r7,#14
        0x00001294:    9906        ..      LDR      r1,[sp,#0x18]
        0x00001296:    4308        .C      ORRS     r0,r0,r1
        0x00001298:    9901        ..      LDR      r1,[sp,#4]
        0x0000129a:    1e89        ..      SUBS     r1,r1,#2
        0x0000129c:    0249        I.      LSLS     r1,r1,#9
        0x0000129e:    4308        .C      ORRS     r0,r0,r1
        0x000012a0:    9902        ..      LDR      r1,[sp,#8]
        0x000012a2:    1e89        ..      SUBS     r1,r1,#2
        0x000012a4:    4308        .C      ORRS     r0,r0,r1
        0x000012a6:    4910        .I      LDR      r1,[pc,#64] ; [0x12e8] = 0x50000200
        0x000012a8:    6208        .b      STR      r0,[r1,#0x20]
        0x000012aa:    2004        .       MOVS     r0,#4
        0x000012ac:    f000fa76    ..v.    BL       CLK_WaitClockReady ; 0x179c
        0x000012b0:    1c78        x.      ADDS     r0,r7,#1
        0x000012b2:    9a01        ..      LDR      r2,[sp,#4]
        0x000012b4:    4350        PC      MULS     r0,r2,r0
        0x000012b6:    4601        .F      MOV      r1,r0
        0x000012b8:    9808        ..      LDR      r0,[sp,#0x20]
        0x000012ba:    f7feff41    ..A.    BL       __aeabi_uidiv ; 0x140
        0x000012be:    9902        ..      LDR      r1,[sp,#8]
        0x000012c0:    4348        HC      MULS     r0,r1,r0
        0x000012c2:    b00b        ..      ADD      sp,sp,#0x2c
        0x000012c4:    bdf0        ..      POP      {r4-r7,pc}
        0x000012c6:    9809        ..      LDR      r0,[sp,#0x24]
        0x000012c8:    2800        .(      CMP      r0,#0
        0x000012ca:    d103        ..      BNE      0x12d4 ; CLK_EnablePLL + 324
        0x000012cc:    480f        .H      LDR      r0,[pc,#60] ; [0x130c] = 0xc22e
        0x000012ce:    4906        .I      LDR      r1,[pc,#24] ; [0x12e8] = 0x50000200
        0x000012d0:    6208        .b      STR      r0,[r1,#0x20]
        0x000012d2:    e002        ..      B        0x12da ; CLK_EnablePLL + 330
        0x000012d4:    480e        .H      LDR      r0,[pc,#56] ; [0x1310] = 0x8d66f
        0x000012d6:    4904        .I      LDR      r1,[pc,#16] ; [0x12e8] = 0x50000200
        0x000012d8:    6208        .b      STR      r0,[r1,#0x20]
        0x000012da:    2004        .       MOVS     r0,#4
        0x000012dc:    f000fa5e    ..^.    BL       CLK_WaitClockReady ; 0x179c
        0x000012e0:    f000f868    ..h.    BL       CLK_GetPLLClockFreq ; 0x13b4
        0x000012e4:    e7ed        ..      B        0x12c2 ; CLK_EnablePLL + 306
    $d
        0x000012e6:    0000        ..      DCW    0
        0x000012e8:    50000200    ...P    DCD    1342177792
        0x000012ec:    00b71b00    ....    DCD    12000000
        0x000012f0:    01518000    ..Q.    DCD    22118400
        0x000012f4:    0bebc200    ....    DCD    200000000
        0x000012f8:    05f5e100    ....    DCD    100000000
        0x000012fc:    02faf080    ....    DCD    50000000
        0x00001300:    00186a00    .j..    DCD    1600000
        0x00001304:    00e4e1c0    ....    DCD    15000000
        0x00001308:    00000201    ....    DCD    513
        0x0000130c:    0000c22e    ....    DCD    49710
        0x00001310:    0008d66f    o...    DCD    579183
    $t
    i.CLK_EnableXtalRC
    CLK_EnableXtalRC
        0x00001314:    4902        .I      LDR      r1,[pc,#8] ; [0x1320] = 0x50000200
        0x00001316:    6809        .h      LDR      r1,[r1,#0]
        0x00001318:    4301        .C      ORRS     r1,r1,r0
        0x0000131a:    4a01        .J      LDR      r2,[pc,#4] ; [0x1320] = 0x50000200
        0x0000131c:    6011        .`      STR      r1,[r2,#0]
        0x0000131e:    4770        pG      BX       lr
    $d
        0x00001320:    50000200    ...P    DCD    1342177792
    $t
    i.CLK_GetPCLKFreq
    CLK_GetPCLKFreq
        0x00001324:    b510        ..      PUSH     {r4,lr}
        0x00001326:    f001f893    ....    BL       SystemCoreClockUpdate ; 0x2450
        0x0000132a:    4801        .H      LDR      r0,[pc,#4] ; [0x1330] = 0x20000000
        0x0000132c:    6800        .h      LDR      r0,[r0,#0]
        0x0000132e:    bd10        ..      POP      {r4,pc}
    $d
        0x00001330:    20000000    ...     DCD    536870912
    $t
    i.CLK_GetPLLClockFreq
    CLK_GetPLLClockFreq
        0x00001334:    b5fe        ..      PUSH     {r1-r7,lr}
        0x00001336:    2000        .       MOVS     r0,#0
        0x00001338:    9002        ..      STR      r0,[sp,#8]
        0x0000133a:    a01a        ..      ADR      r0,{pc}+0x6a ; 0x13a4
        0x0000133c:    6800        .h      LDR      r0,[r0,#0]
        0x0000133e:    9000        ..      STR      r0,[sp,#0]
        0x00001340:    4819        .H      LDR      r0,[pc,#100] ; [0x13a8] = 0x50000200
        0x00001342:    6a04        .j      LDR      r4,[r0,#0x20]
        0x00001344:    1300        ..      ASRS     r0,r0,#12
        0x00001346:    4020         @      ANDS     r0,r0,r4
        0x00001348:    2800        .(      CMP      r0,#0
        0x0000134a:    d001        ..      BEQ      0x1350 ; CLK_GetPLLClockFreq + 28
        0x0000134c:    2000        .       MOVS     r0,#0
        0x0000134e:    bdfe        ..      POP      {r1-r7,pc}
        0x00001350:    2001        .       MOVS     r0,#1
        0x00001352:    04c0        ..      LSLS     r0,r0,#19
        0x00001354:    4020         @      ANDS     r0,r0,r4
        0x00001356:    2800        .(      CMP      r0,#0
        0x00001358:    d001        ..      BEQ      0x135e ; CLK_GetPLLClockFreq + 42
        0x0000135a:    4d14        .M      LDR      r5,[pc,#80] ; [0x13ac] = 0x1518000
        0x0000135c:    e000        ..      B        0x1360 ; CLK_GetPLLClockFreq + 44
        0x0000135e:    4d14        .M      LDR      r5,[pc,#80] ; [0x13b0] = 0xb71b00
        0x00001360:    2001        .       MOVS     r0,#1
        0x00001362:    0440        @.      LSLS     r0,r0,#17
        0x00001364:    4020         @      ANDS     r0,r0,r4
        0x00001366:    2800        .(      CMP      r0,#0
        0x00001368:    d001        ..      BEQ      0x136e ; CLK_GetPLLClockFreq + 58
        0x0000136a:    4628        (F      MOV      r0,r5
        0x0000136c:    e7ef        ..      B        0x134e ; CLK_GetPLLClockFreq + 26
        0x0000136e:    2003        .       MOVS     r0,#3
        0x00001370:    0380        ..      LSLS     r0,r0,#14
        0x00001372:    4020         @      ANDS     r0,r0,r4
        0x00001374:    0b80        ..      LSRS     r0,r0,#14
        0x00001376:    4669        iF      MOV      r1,sp
        0x00001378:    5c0a        .\      LDRB     r2,[r1,r0]
        0x0000137a:    9201        ..      STR      r2,[sp,#4]
        0x0000137c:    05e0        ..      LSLS     r0,r4,#23
        0x0000137e:    0dc0        ..      LSRS     r0,r0,#23
        0x00001380:    1c86        ..      ADDS     r6,r0,#2
        0x00001382:    201f        .       MOVS     r0,#0x1f
        0x00001384:    0240        @.      LSLS     r0,r0,#9
        0x00001386:    4020         @      ANDS     r0,r0,r4
        0x00001388:    0a40        @.      LSRS     r0,r0,#9
        0x0000138a:    1c87        ..      ADDS     r7,r0,#2
        0x0000138c:    9a01        ..      LDR      r2,[sp,#4]
        0x0000138e:    437a        zC      MULS     r2,r7,r2
        0x00001390:    4611        .F      MOV      r1,r2
        0x00001392:    08aa        ..      LSRS     r2,r5,#2
        0x00001394:    4372        rC      MULS     r2,r6,r2
        0x00001396:    4610        .F      MOV      r0,r2
        0x00001398:    f7fefed2    ....    BL       __aeabi_uidiv ; 0x140
        0x0000139c:    0080        ..      LSLS     r0,r0,#2
        0x0000139e:    9002        ..      STR      r0,[sp,#8]
        0x000013a0:    9802        ..      LDR      r0,[sp,#8]
        0x000013a2:    e7d4        ..      B        0x134e ; CLK_GetPLLClockFreq + 26
    $d
        0x000013a4:    04020201    ....    DCD    67240449
        0x000013a8:    50000200    ...P    DCD    1342177792
        0x000013ac:    01518000    ..Q.    DCD    22118400
        0x000013b0:    00b71b00    ....    DCD    12000000
    $t
    i.CLK_GetPLLClockFreq
    CLK_GetPLLClockFreq
        0x000013b4:    b5fe        ..      PUSH     {r1-r7,lr}
        0x000013b6:    2000        .       MOVS     r0,#0
        0x000013b8:    9002        ..      STR      r0,[sp,#8]
        0x000013ba:    a01a        ..      ADR      r0,{pc}+0x6a ; 0x1424
        0x000013bc:    6800        .h      LDR      r0,[r0,#0]
        0x000013be:    9000        ..      STR      r0,[sp,#0]
        0x000013c0:    4819        .H      LDR      r0,[pc,#100] ; [0x1428] = 0x50000200
        0x000013c2:    6a04        .j      LDR      r4,[r0,#0x20]
        0x000013c4:    1300        ..      ASRS     r0,r0,#12
        0x000013c6:    4020         @      ANDS     r0,r0,r4
        0x000013c8:    2800        .(      CMP      r0,#0
        0x000013ca:    d001        ..      BEQ      0x13d0 ; CLK_GetPLLClockFreq + 28
        0x000013cc:    2000        .       MOVS     r0,#0
        0x000013ce:    bdfe        ..      POP      {r1-r7,pc}
        0x000013d0:    2001        .       MOVS     r0,#1
        0x000013d2:    04c0        ..      LSLS     r0,r0,#19
        0x000013d4:    4020         @      ANDS     r0,r0,r4
        0x000013d6:    2800        .(      CMP      r0,#0
        0x000013d8:    d001        ..      BEQ      0x13de ; CLK_GetPLLClockFreq + 42
        0x000013da:    4d14        .M      LDR      r5,[pc,#80] ; [0x142c] = 0x1518000
        0x000013dc:    e000        ..      B        0x13e0 ; CLK_GetPLLClockFreq + 44
        0x000013de:    4d14        .M      LDR      r5,[pc,#80] ; [0x1430] = 0xb71b00
        0x000013e0:    2001        .       MOVS     r0,#1
        0x000013e2:    0440        @.      LSLS     r0,r0,#17
        0x000013e4:    4020         @      ANDS     r0,r0,r4
        0x000013e6:    2800        .(      CMP      r0,#0
        0x000013e8:    d001        ..      BEQ      0x13ee ; CLK_GetPLLClockFreq + 58
        0x000013ea:    4628        (F      MOV      r0,r5
        0x000013ec:    e7ef        ..      B        0x13ce ; CLK_GetPLLClockFreq + 26
        0x000013ee:    2003        .       MOVS     r0,#3
        0x000013f0:    0380        ..      LSLS     r0,r0,#14
        0x000013f2:    4020         @      ANDS     r0,r0,r4
        0x000013f4:    0b80        ..      LSRS     r0,r0,#14
        0x000013f6:    4669        iF      MOV      r1,sp
        0x000013f8:    5c0a        .\      LDRB     r2,[r1,r0]
        0x000013fa:    9201        ..      STR      r2,[sp,#4]
        0x000013fc:    05e0        ..      LSLS     r0,r4,#23
        0x000013fe:    0dc0        ..      LSRS     r0,r0,#23
        0x00001400:    1c86        ..      ADDS     r6,r0,#2
        0x00001402:    201f        .       MOVS     r0,#0x1f
        0x00001404:    0240        @.      LSLS     r0,r0,#9
        0x00001406:    4020         @      ANDS     r0,r0,r4
        0x00001408:    0a40        @.      LSRS     r0,r0,#9
        0x0000140a:    1c87        ..      ADDS     r7,r0,#2
        0x0000140c:    9a01        ..      LDR      r2,[sp,#4]
        0x0000140e:    437a        zC      MULS     r2,r7,r2
        0x00001410:    4611        .F      MOV      r1,r2
        0x00001412:    08aa        ..      LSRS     r2,r5,#2
        0x00001414:    4372        rC      MULS     r2,r6,r2
        0x00001416:    4610        .F      MOV      r0,r2
        0x00001418:    f7fefe92    ....    BL       __aeabi_uidiv ; 0x140
        0x0000141c:    0080        ..      LSLS     r0,r0,#2
        0x0000141e:    9002        ..      STR      r0,[sp,#8]
        0x00001420:    9802        ..      LDR      r0,[sp,#8]
        0x00001422:    e7d4        ..      B        0x13ce ; CLK_GetPLLClockFreq + 26
    $d
        0x00001424:    04020201    ....    DCD    67240449
        0x00001428:    50000200    ...P    DCD    1342177792
        0x0000142c:    01518000    ..Q.    DCD    22118400
        0x00001430:    00b71b00    ....    DCD    12000000
    $t
    i.CLK_GetPLLClockFreq
    CLK_GetPLLClockFreq
        0x00001434:    b5fe        ..      PUSH     {r1-r7,lr}
        0x00001436:    2000        .       MOVS     r0,#0
        0x00001438:    9002        ..      STR      r0,[sp,#8]
        0x0000143a:    a01a        ..      ADR      r0,{pc}+0x6a ; 0x14a4
        0x0000143c:    6800        .h      LDR      r0,[r0,#0]
        0x0000143e:    9000        ..      STR      r0,[sp,#0]
        0x00001440:    4819        .H      LDR      r0,[pc,#100] ; [0x14a8] = 0x50000200
        0x00001442:    6a04        .j      LDR      r4,[r0,#0x20]
        0x00001444:    1300        ..      ASRS     r0,r0,#12
        0x00001446:    4020         @      ANDS     r0,r0,r4
        0x00001448:    2800        .(      CMP      r0,#0
        0x0000144a:    d001        ..      BEQ      0x1450 ; CLK_GetPLLClockFreq + 28
        0x0000144c:    2000        .       MOVS     r0,#0
        0x0000144e:    bdfe        ..      POP      {r1-r7,pc}
        0x00001450:    2001        .       MOVS     r0,#1
        0x00001452:    04c0        ..      LSLS     r0,r0,#19
        0x00001454:    4020         @      ANDS     r0,r0,r4
        0x00001456:    2800        .(      CMP      r0,#0
        0x00001458:    d001        ..      BEQ      0x145e ; CLK_GetPLLClockFreq + 42
        0x0000145a:    4d14        .M      LDR      r5,[pc,#80] ; [0x14ac] = 0x1518000
        0x0000145c:    e000        ..      B        0x1460 ; CLK_GetPLLClockFreq + 44
        0x0000145e:    4d14        .M      LDR      r5,[pc,#80] ; [0x14b0] = 0xb71b00
        0x00001460:    2001        .       MOVS     r0,#1
        0x00001462:    0440        @.      LSLS     r0,r0,#17
        0x00001464:    4020         @      ANDS     r0,r0,r4
        0x00001466:    2800        .(      CMP      r0,#0
        0x00001468:    d001        ..      BEQ      0x146e ; CLK_GetPLLClockFreq + 58
        0x0000146a:    4628        (F      MOV      r0,r5
        0x0000146c:    e7ef        ..      B        0x144e ; CLK_GetPLLClockFreq + 26
        0x0000146e:    2003        .       MOVS     r0,#3
        0x00001470:    0380        ..      LSLS     r0,r0,#14
        0x00001472:    4020         @      ANDS     r0,r0,r4
        0x00001474:    0b80        ..      LSRS     r0,r0,#14
        0x00001476:    4669        iF      MOV      r1,sp
        0x00001478:    5c0a        .\      LDRB     r2,[r1,r0]
        0x0000147a:    9201        ..      STR      r2,[sp,#4]
        0x0000147c:    05e0        ..      LSLS     r0,r4,#23
        0x0000147e:    0dc0        ..      LSRS     r0,r0,#23
        0x00001480:    1c86        ..      ADDS     r6,r0,#2
        0x00001482:    201f        .       MOVS     r0,#0x1f
        0x00001484:    0240        @.      LSLS     r0,r0,#9
        0x00001486:    4020         @      ANDS     r0,r0,r4
        0x00001488:    0a40        @.      LSRS     r0,r0,#9
        0x0000148a:    1c87        ..      ADDS     r7,r0,#2
        0x0000148c:    9a01        ..      LDR      r2,[sp,#4]
        0x0000148e:    437a        zC      MULS     r2,r7,r2
        0x00001490:    4611        .F      MOV      r1,r2
        0x00001492:    08aa        ..      LSRS     r2,r5,#2
        0x00001494:    4372        rC      MULS     r2,r6,r2
        0x00001496:    4610        .F      MOV      r0,r2
        0x00001498:    f7fefe52    ..R.    BL       __aeabi_uidiv ; 0x140
        0x0000149c:    0080        ..      LSLS     r0,r0,#2
        0x0000149e:    9002        ..      STR      r0,[sp,#8]
        0x000014a0:    9802        ..      LDR      r0,[sp,#8]
        0x000014a2:    e7d4        ..      B        0x144e ; CLK_GetPLLClockFreq + 26
    $d
        0x000014a4:    04020201    ....    DCD    67240449
        0x000014a8:    50000200    ...P    DCD    1342177792
        0x000014ac:    01518000    ..Q.    DCD    22118400
        0x000014b0:    00b71b00    ....    DCD    12000000
    $t
    i.CLK_GetPLLClockFreq
    CLK_GetPLLClockFreq
        0x000014b4:    b5fe        ..      PUSH     {r1-r7,lr}
        0x000014b6:    2000        .       MOVS     r0,#0
        0x000014b8:    9002        ..      STR      r0,[sp,#8]
        0x000014ba:    a01a        ..      ADR      r0,{pc}+0x6a ; 0x1524
        0x000014bc:    6800        .h      LDR      r0,[r0,#0]
        0x000014be:    9000        ..      STR      r0,[sp,#0]
        0x000014c0:    4819        .H      LDR      r0,[pc,#100] ; [0x1528] = 0x50000200
        0x000014c2:    6a04        .j      LDR      r4,[r0,#0x20]
        0x000014c4:    1300        ..      ASRS     r0,r0,#12
        0x000014c6:    4020         @      ANDS     r0,r0,r4
        0x000014c8:    2800        .(      CMP      r0,#0
        0x000014ca:    d001        ..      BEQ      0x14d0 ; CLK_GetPLLClockFreq + 28
        0x000014cc:    2000        .       MOVS     r0,#0
        0x000014ce:    bdfe        ..      POP      {r1-r7,pc}
        0x000014d0:    2001        .       MOVS     r0,#1
        0x000014d2:    04c0        ..      LSLS     r0,r0,#19
        0x000014d4:    4020         @      ANDS     r0,r0,r4
        0x000014d6:    2800        .(      CMP      r0,#0
        0x000014d8:    d001        ..      BEQ      0x14de ; CLK_GetPLLClockFreq + 42
        0x000014da:    4d14        .M      LDR      r5,[pc,#80] ; [0x152c] = 0x1518000
        0x000014dc:    e000        ..      B        0x14e0 ; CLK_GetPLLClockFreq + 44
        0x000014de:    4d14        .M      LDR      r5,[pc,#80] ; [0x1530] = 0xb71b00
        0x000014e0:    2001        .       MOVS     r0,#1
        0x000014e2:    0440        @.      LSLS     r0,r0,#17
        0x000014e4:    4020         @      ANDS     r0,r0,r4
        0x000014e6:    2800        .(      CMP      r0,#0
        0x000014e8:    d001        ..      BEQ      0x14ee ; CLK_GetPLLClockFreq + 58
        0x000014ea:    4628        (F      MOV      r0,r5
        0x000014ec:    e7ef        ..      B        0x14ce ; CLK_GetPLLClockFreq + 26
        0x000014ee:    2003        .       MOVS     r0,#3
        0x000014f0:    0380        ..      LSLS     r0,r0,#14
        0x000014f2:    4020         @      ANDS     r0,r0,r4
        0x000014f4:    0b80        ..      LSRS     r0,r0,#14
        0x000014f6:    4669        iF      MOV      r1,sp
        0x000014f8:    5c0a        .\      LDRB     r2,[r1,r0]
        0x000014fa:    9201        ..      STR      r2,[sp,#4]
        0x000014fc:    05e0        ..      LSLS     r0,r4,#23
        0x000014fe:    0dc0        ..      LSRS     r0,r0,#23
        0x00001500:    1c86        ..      ADDS     r6,r0,#2
        0x00001502:    201f        .       MOVS     r0,#0x1f
        0x00001504:    0240        @.      LSLS     r0,r0,#9
        0x00001506:    4020         @      ANDS     r0,r0,r4
        0x00001508:    0a40        @.      LSRS     r0,r0,#9
        0x0000150a:    1c87        ..      ADDS     r7,r0,#2
        0x0000150c:    9a01        ..      LDR      r2,[sp,#4]
        0x0000150e:    437a        zC      MULS     r2,r7,r2
        0x00001510:    4611        .F      MOV      r1,r2
        0x00001512:    08aa        ..      LSRS     r2,r5,#2
        0x00001514:    4372        rC      MULS     r2,r6,r2
        0x00001516:    4610        .F      MOV      r0,r2
        0x00001518:    f7fefe12    ....    BL       __aeabi_uidiv ; 0x140
        0x0000151c:    0080        ..      LSLS     r0,r0,#2
        0x0000151e:    9002        ..      STR      r0,[sp,#8]
        0x00001520:    9802        ..      LDR      r0,[sp,#8]
        0x00001522:    e7d4        ..      B        0x14ce ; CLK_GetPLLClockFreq + 26
    $d
        0x00001524:    04020201    ....    DCD    67240449
        0x00001528:    50000200    ...P    DCD    1342177792
        0x0000152c:    01518000    ..Q.    DCD    22118400
        0x00001530:    00b71b00    ....    DCD    12000000
    $t
    i.CLK_SetCoreClock
    CLK_SetCoreClock
        0x00001534:    b5f8        ..      PUSH     {r3-r7,lr}
        0x00001536:    4604        .F      MOV      r4,r0
        0x00001538:    4836        6H      LDR      r0,[pc,#216] ; [0x1614] = 0x50000200
        0x0000153a:    68c0        .h      LDR      r0,[r0,#0xc]
        0x0000153c:    2110        .!      MOVS     r1,#0x10
        0x0000153e:    4008        .@      ANDS     r0,r0,r1
        0x00001540:    4607        .F      MOV      r7,r0
        0x00001542:    4835        5H      LDR      r0,[pc,#212] ; [0x1618] = 0x44aa200
        0x00001544:    4284        .B      CMP      r4,r0
        0x00001546:    d900        ..      BLS      0x154a ; CLK_SetCoreClock + 22
        0x00001548:    4604        .F      MOV      r4,r0
        0x0000154a:    4834        4H      LDR      r0,[pc,#208] ; [0x161c] = 0x17d7840
        0x0000154c:    4284        .B      CMP      r4,r0
        0x0000154e:    d200        ..      BCS      0x1552 ; CLK_SetCoreClock + 30
        0x00001550:    4604        .F      MOV      r4,r0
        0x00001552:    2601        .&      MOVS     r6,#1
        0x00001554:    4832        2H      LDR      r0,[pc,#200] ; [0x1620] = 0x2faf080
        0x00001556:    4284        .B      CMP      r4,r0
        0x00001558:    d901        ..      BLS      0x155e ; CLK_SetCoreClock + 42
        0x0000155a:    2550        P%      MOVS     r5,#0x50
        0x0000155c:    e000        ..      B        0x1560 ; CLK_SetCoreClock + 44
        0x0000155e:    2500        .%      MOVS     r5,#0
        0x00001560:    4830        0H      LDR      r0,[pc,#192] ; [0x1624] = 0x5000c000
        0x00001562:    6980        .i      LDR      r0,[r0,#0x18]
        0x00001564:    2150        P!      MOVS     r1,#0x50
        0x00001566:    4388        .C      BICS     r0,r0,r1
        0x00001568:    3050        P0      ADDS     r0,r0,#0x50
        0x0000156a:    492e        .I      LDR      r1,[pc,#184] ; [0x1624] = 0x5000c000
        0x0000156c:    6188        .a      STR      r0,[r1,#0x18]
        0x0000156e:    4829        )H      LDR      r0,[pc,#164] ; [0x1614] = 0x50000200
        0x00001570:    6800        .h      LDR      r0,[r0,#0]
        0x00001572:    2104        .!      MOVS     r1,#4
        0x00001574:    4308        .C      ORRS     r0,r0,r1
        0x00001576:    4927        'I      LDR      r1,[pc,#156] ; [0x1614] = 0x50000200
        0x00001578:    6008        .`      STR      r0,[r1,#0]
        0x0000157a:    bf00        ..      NOP      
        0x0000157c:    4825        %H      LDR      r0,[pc,#148] ; [0x1614] = 0x50000200
        0x0000157e:    68c0        .h      LDR      r0,[r0,#0xc]
        0x00001580:    2110        .!      MOVS     r1,#0x10
        0x00001582:    4008        .@      ANDS     r0,r0,r1
        0x00001584:    2800        .(      CMP      r0,#0
        0x00001586:    d0f9        ..      BEQ      0x157c ; CLK_SetCoreClock + 72
        0x00001588:    4822        "H      LDR      r0,[pc,#136] ; [0x1614] = 0x50000200
        0x0000158a:    6900        .i      LDR      r0,[r0,#0x10]
        0x0000158c:    08c0        ..      LSRS     r0,r0,#3
        0x0000158e:    00c0        ..      LSLS     r0,r0,#3
        0x00001590:    1dc0        ..      ADDS     r0,r0,#7
        0x00001592:    4920         I      LDR      r1,[pc,#128] ; [0x1614] = 0x50000200
        0x00001594:    6108        .a      STR      r0,[r1,#0x10]
        0x00001596:    4608        .F      MOV      r0,r1
        0x00001598:    6a00        .j      LDR      r0,[r0,#0x20]
        0x0000159a:    01c9        ..      LSLS     r1,r1,#7
        0x0000159c:    4308        .C      ORRS     r0,r0,r1
        0x0000159e:    491d        .I      LDR      r1,[pc,#116] ; [0x1614] = 0x50000200
        0x000015a0:    6208        .b      STR      r0,[r1,#0x20]
        0x000015a2:    4608        .F      MOV      r0,r1
        0x000015a4:    68c0        .h      LDR      r0,[r0,#0xc]
        0x000015a6:    07c0        ..      LSLS     r0,r0,#31
        0x000015a8:    0fc0        ..      LSRS     r0,r0,#31
        0x000015aa:    2800        .(      CMP      r0,#0
        0x000015ac:    d00f        ..      BEQ      0x15ce ; CLK_SetCoreClock + 154
        0x000015ae:    481a        .H      LDR      r0,[pc,#104] ; [0x1618] = 0x44aa200
        0x000015b0:    4284        .B      CMP      r4,r0
        0x000015b2:    d106        ..      BNE      0x15c2 ; CLK_SetCoreClock + 142
        0x000015b4:    0061        a.      LSLS     r1,r4,#1
        0x000015b6:    2000        .       MOVS     r0,#0
        0x000015b8:    f7fffdea    ....    BL       CLK_EnablePLL ; 0x1190
        0x000015bc:    4604        .F      MOV      r4,r0
        0x000015be:    2602        .&      MOVS     r6,#2
        0x000015c0:    e010        ..      B        0x15e4 ; CLK_SetCoreClock + 176
        0x000015c2:    4621        !F      MOV      r1,r4
        0x000015c4:    2000        .       MOVS     r0,#0
        0x000015c6:    f7fffde3    ....    BL       CLK_EnablePLL ; 0x1190
        0x000015ca:    4604        .F      MOV      r4,r0
        0x000015cc:    e00a        ..      B        0x15e4 ; CLK_SetCoreClock + 176
        0x000015ce:    4621        !F      MOV      r1,r4
        0x000015d0:    2001        .       MOVS     r0,#1
        0x000015d2:    04c0        ..      LSLS     r0,r0,#19
        0x000015d4:    f7fffddc    ....    BL       CLK_EnablePLL ; 0x1190
        0x000015d8:    4604        .F      MOV      r4,r0
        0x000015da:    480e        .H      LDR      r0,[pc,#56] ; [0x1614] = 0x50000200
        0x000015dc:    68c0        .h      LDR      r0,[r0,#0xc]
        0x000015de:    2110        .!      MOVS     r1,#0x10
        0x000015e0:    4008        .@      ANDS     r0,r0,r1
        0x000015e2:    4607        .F      MOV      r7,r0
        0x000015e4:    480f        .H      LDR      r0,[pc,#60] ; [0x1624] = 0x5000c000
        0x000015e6:    6980        .i      LDR      r0,[r0,#0x18]
        0x000015e8:    2150        P!      MOVS     r1,#0x50
        0x000015ea:    4388        .C      BICS     r0,r0,r1
        0x000015ec:    4328        (C      ORRS     r0,r0,r5
        0x000015ee:    490d        .I      LDR      r1,[pc,#52] ; [0x1624] = 0x5000c000
        0x000015f0:    6188        .a      STR      r0,[r1,#0x18]
        0x000015f2:    1e71        q.      SUBS     r1,r6,#1
        0x000015f4:    2002        .       MOVS     r0,#2
        0x000015f6:    f000f817    ....    BL       CLK_SetHCLK ; 0x1628
        0x000015fa:    2f00        ./      CMP      r7,#0
        0x000015fc:    d105        ..      BNE      0x160a ; CLK_SetCoreClock + 214
        0x000015fe:    4805        .H      LDR      r0,[pc,#20] ; [0x1614] = 0x50000200
        0x00001600:    6800        .h      LDR      r0,[r0,#0]
        0x00001602:    2104        .!      MOVS     r1,#4
        0x00001604:    4388        .C      BICS     r0,r0,r1
        0x00001606:    4903        .I      LDR      r1,[pc,#12] ; [0x1614] = 0x50000200
        0x00001608:    6008        .`      STR      r0,[r1,#0]
        0x0000160a:    4631        1F      MOV      r1,r6
        0x0000160c:    4620         F      MOV      r0,r4
        0x0000160e:    f7fefd97    ....    BL       __aeabi_uidiv ; 0x140
        0x00001612:    bdf8        ..      POP      {r3-r7,pc}
    $d
        0x00001614:    50000200    ...P    DCD    1342177792
        0x00001618:    044aa200    ..J.    DCD    72000000
        0x0000161c:    017d7840    @x}.    DCD    25000000
        0x00001620:    02faf080    ....    DCD    50000000
        0x00001624:    5000c000    ...P    DCD    1342226432
    $t
    i.CLK_SetHCLK
    CLK_SetHCLK
        0x00001628:    b570        p.      PUSH     {r4-r6,lr}
        0x0000162a:    4604        .F      MOV      r4,r0
        0x0000162c:    460d        .F      MOV      r5,r1
        0x0000162e:    4818        .H      LDR      r0,[pc,#96] ; [0x1690] = 0x50000200
        0x00001630:    68c0        .h      LDR      r0,[r0,#0xc]
        0x00001632:    2110        .!      MOVS     r1,#0x10
        0x00001634:    4008        .@      ANDS     r0,r0,r1
        0x00001636:    4606        .F      MOV      r6,r0
        0x00001638:    4815        .H      LDR      r0,[pc,#84] ; [0x1690] = 0x50000200
        0x0000163a:    6800        .h      LDR      r0,[r0,#0]
        0x0000163c:    2104        .!      MOVS     r1,#4
        0x0000163e:    4308        .C      ORRS     r0,r0,r1
        0x00001640:    4913        .I      LDR      r1,[pc,#76] ; [0x1690] = 0x50000200
        0x00001642:    6008        .`      STR      r0,[r1,#0]
        0x00001644:    bf00        ..      NOP      
        0x00001646:    4812        .H      LDR      r0,[pc,#72] ; [0x1690] = 0x50000200
        0x00001648:    68c0        .h      LDR      r0,[r0,#0xc]
        0x0000164a:    2110        .!      MOVS     r1,#0x10
        0x0000164c:    4008        .@      ANDS     r0,r0,r1
        0x0000164e:    2800        .(      CMP      r0,#0
        0x00001650:    d0f9        ..      BEQ      0x1646 ; CLK_SetHCLK + 30
        0x00001652:    480f        .H      LDR      r0,[pc,#60] ; [0x1690] = 0x50000200
        0x00001654:    6900        .i      LDR      r0,[r0,#0x10]
        0x00001656:    08c0        ..      LSRS     r0,r0,#3
        0x00001658:    00c0        ..      LSLS     r0,r0,#3
        0x0000165a:    1dc0        ..      ADDS     r0,r0,#7
        0x0000165c:    490c        .I      LDR      r1,[pc,#48] ; [0x1690] = 0x50000200
        0x0000165e:    6108        .a      STR      r0,[r1,#0x10]
        0x00001660:    4608        .F      MOV      r0,r1
        0x00001662:    6980        .i      LDR      r0,[r0,#0x18]
        0x00001664:    0900        ..      LSRS     r0,r0,#4
        0x00001666:    0100        ..      LSLS     r0,r0,#4
        0x00001668:    4328        (C      ORRS     r0,r0,r5
        0x0000166a:    6188        .a      STR      r0,[r1,#0x18]
        0x0000166c:    4608        .F      MOV      r0,r1
        0x0000166e:    6900        .i      LDR      r0,[r0,#0x10]
        0x00001670:    08c0        ..      LSRS     r0,r0,#3
        0x00001672:    00c0        ..      LSLS     r0,r0,#3
        0x00001674:    4320         C      ORRS     r0,r0,r4
        0x00001676:    6108        .a      STR      r0,[r1,#0x10]
        0x00001678:    f000feea    ....    BL       SystemCoreClockUpdate ; 0x2450
        0x0000167c:    2e00        ..      CMP      r6,#0
        0x0000167e:    d105        ..      BNE      0x168c ; CLK_SetHCLK + 100
        0x00001680:    4803        .H      LDR      r0,[pc,#12] ; [0x1690] = 0x50000200
        0x00001682:    6800        .h      LDR      r0,[r0,#0]
        0x00001684:    2104        .!      MOVS     r1,#4
        0x00001686:    4388        .C      BICS     r0,r0,r1
        0x00001688:    4901        .I      LDR      r1,[pc,#4] ; [0x1690] = 0x50000200
        0x0000168a:    6008        .`      STR      r0,[r1,#0]
        0x0000168c:    bd70        p.      POP      {r4-r6,pc}
    $d
        0x0000168e:    0000        ..      DCW    0
        0x00001690:    50000200    ...P    DCD    1342177792
    $t
    i.CLK_SetModuleClock
    CLK_SetModuleClock
        0x00001694:    b5f7        ..      PUSH     {r0-r2,r4-r7,lr}
        0x00001696:    b086        ..      SUB      sp,sp,#0x18
        0x00001698:    2200        ."      MOVS     r2,#0
        0x0000169a:    2300        .#      MOVS     r3,#0
        0x0000169c:    4c39        9L      LDR      r4,[pc,#228] ; [0x1784] = 0x3460
        0x0000169e:    4625        %F      MOV      r5,r4
        0x000016a0:    cde0        ..      LDM      r5,{r5-r7}
        0x000016a2:    68e4        .h      LDR      r4,[r4,#0xc]
        0x000016a4:    9704        ..      STR      r7,[sp,#0x10]
        0x000016a6:    9603        ..      STR      r6,[sp,#0xc]
        0x000016a8:    9502        ..      STR      r5,[sp,#8]
        0x000016aa:    9405        ..      STR      r4,[sp,#0x14]
        0x000016ac:    4d35        5M      LDR      r5,[pc,#212] ; [0x1784] = 0x3460
        0x000016ae:    3510        .5      ADDS     r5,r5,#0x10
        0x000016b0:    cd30        0.      LDM      r5,{r4,r5}
        0x000016b2:    9501        ..      STR      r5,[sp,#4]
        0x000016b4:    9400        ..      STR      r4,[sp,#0]
        0x000016b6:    0104        ..      LSLS     r4,r0,#4
        0x000016b8:    0f64        d.      LSRS     r4,r4,#29
        0x000016ba:    2c00        .,      CMP      r4,#0
        0x000016bc:    d04a        J.      BEQ      0x1754 ; CLK_SetModuleClock + 192
        0x000016be:    0084        ..      LSLS     r4,r0,#2
        0x000016c0:    0fa4        ..      LSRS     r4,r4,#30
        0x000016c2:    00a4        ..      LSLS     r4,r4,#2
        0x000016c4:    ad02        ..      ADD      r5,sp,#8
        0x000016c6:    592c        ,Y      LDR      r4,[r5,r4]
        0x000016c8:    4d2f        /M      LDR      r5,[pc,#188] ; [0x1788] = 0x50000210
        0x000016ca:    1962        b.      ADDS     r2,r4,r5
        0x000016cc:    0104        ..      LSLS     r4,r0,#4
        0x000016ce:    0f65        e.      LSRS     r5,r4,#29
        0x000016d0:    01c4        ..      LSLS     r4,r0,#7
        0x000016d2:    0ee4        ..      LSRS     r4,r4,#27
        0x000016d4:    40a5        .@      LSLS     r5,r5,r4
        0x000016d6:    6814        .h      LDR      r4,[r2,#0]
        0x000016d8:    43ac        .C      BICS     r4,r4,r5
        0x000016da:    430c        .C      ORRS     r4,r4,r1
        0x000016dc:    6014        .`      STR      r4,[r2,#0]
        0x000016de:    4c2b        +L      LDR      r4,[pc,#172] ; [0x178c] = 0x57c00014
        0x000016e0:    42a0        .B      CMP      r0,r4
        0x000016e2:    d10b        ..      BNE      0x16fc ; CLK_SetModuleClock + 104
        0x000016e4:    4c28        (L      LDR      r4,[pc,#160] ; [0x1788] = 0x50000210
        0x000016e6:    3c10        .<      SUBS     r4,r4,#0x10
        0x000016e8:    69e4        .i      LDR      r4,[r4,#0x1c]
        0x000016ea:    25ff        .%      MOVS     r5,#0xff
        0x000016ec:    3501        .5      ADDS     r5,#1
        0x000016ee:    43ac        .C      BICS     r4,r4,r5
        0x000016f0:    400d        .@      ANDS     r5,r5,r1
        0x000016f2:    432c        ,C      ORRS     r4,r4,r5
        0x000016f4:    4d24        $M      LDR      r5,[pc,#144] ; [0x1788] = 0x50000210
        0x000016f6:    3d10        .=      SUBS     r5,r5,#0x10
        0x000016f8:    61ec        .a      STR      r4,[r5,#0x1c]
        0x000016fa:    e02b        +.      B        0x1754 ; CLK_SetModuleClock + 192
        0x000016fc:    4c24        $L      LDR      r4,[pc,#144] ; [0x1790] = 0x57e00015
        0x000016fe:    42a0        .B      CMP      r0,r4
        0x00001700:    d10b        ..      BNE      0x171a ; CLK_SetModuleClock + 134
        0x00001702:    4c21        !L      LDR      r4,[pc,#132] ; [0x1788] = 0x50000210
        0x00001704:    3c10        .<      SUBS     r4,r4,#0x10
        0x00001706:    69e4        .i      LDR      r4,[r4,#0x1c]
        0x00001708:    2501        .%      MOVS     r5,#1
        0x0000170a:    026d        m.      LSLS     r5,r5,#9
        0x0000170c:    43ac        .C      BICS     r4,r4,r5
        0x0000170e:    400d        .@      ANDS     r5,r5,r1
        0x00001710:    432c        ,C      ORRS     r4,r4,r5
        0x00001712:    4d1d        .M      LDR      r5,[pc,#116] ; [0x1788] = 0x50000210
        0x00001714:    3d10        .=      SUBS     r5,r5,#0x10
        0x00001716:    61ec        .a      STR      r4,[r5,#0x1c]
        0x00001718:    e01c        ..      B        0x1754 ; CLK_SetModuleClock + 192
        0x0000171a:    4c1e        .L      LDR      r4,[pc,#120] ; [0x1794] = 0x66400016
        0x0000171c:    42a0        .B      CMP      r0,r4
        0x0000171e:    d10b        ..      BNE      0x1738 ; CLK_SetModuleClock + 164
        0x00001720:    4c19        .L      LDR      r4,[pc,#100] ; [0x1788] = 0x50000210
        0x00001722:    3c10        .<      SUBS     r4,r4,#0x10
        0x00001724:    69e4        .i      LDR      r4,[r4,#0x1c]
        0x00001726:    2501        .%      MOVS     r5,#1
        0x00001728:    02ad        ..      LSLS     r5,r5,#10
        0x0000172a:    43ac        .C      BICS     r4,r4,r5
        0x0000172c:    400d        .@      ANDS     r5,r5,r1
        0x0000172e:    432c        ,C      ORRS     r4,r4,r5
        0x00001730:    4d15        .M      LDR      r5,[pc,#84] ; [0x1788] = 0x50000210
        0x00001732:    3d10        .=      SUBS     r5,r5,#0x10
        0x00001734:    61ec        .a      STR      r4,[r5,#0x1c]
        0x00001736:    e00d        ..      B        0x1754 ; CLK_SetModuleClock + 192
        0x00001738:    4c17        .L      LDR      r4,[pc,#92] ; [0x1798] = 0x66600017
        0x0000173a:    42a0        .B      CMP      r0,r4
        0x0000173c:    d10a        ..      BNE      0x1754 ; CLK_SetModuleClock + 192
        0x0000173e:    4c12        .L      LDR      r4,[pc,#72] ; [0x1788] = 0x50000210
        0x00001740:    3c10        .<      SUBS     r4,r4,#0x10
        0x00001742:    69e4        .i      LDR      r4,[r4,#0x1c]
        0x00001744:    2501        .%      MOVS     r5,#1
        0x00001746:    02ed        ..      LSLS     r5,r5,#11
        0x00001748:    43ac        .C      BICS     r4,r4,r5
        0x0000174a:    400d        .@      ANDS     r5,r5,r1
        0x0000174c:    432c        ,C      ORRS     r4,r4,r5
        0x0000174e:    4d0e        .M      LDR      r5,[pc,#56] ; [0x1788] = 0x50000210
        0x00001750:    3d10        .=      SUBS     r5,r5,#0x10
        0x00001752:    61ec        .a      STR      r4,[r5,#0x1c]
        0x00001754:    0384        ..      LSLS     r4,r0,#14
        0x00001756:    0e24        $.      LSRS     r4,r4,#24
        0x00001758:    2c00        .,      CMP      r4,#0
        0x0000175a:    d011        ..      BEQ      0x1780 ; CLK_SetModuleClock + 236
        0x0000175c:    0304        ..      LSLS     r4,r0,#12
        0x0000175e:    0fa4        ..      LSRS     r4,r4,#30
        0x00001760:    00a4        ..      LSLS     r4,r4,#2
        0x00001762:    466d        mF      MOV      r5,sp
        0x00001764:    592c        ,Y      LDR      r4,[r5,r4]
        0x00001766:    4d08        .M      LDR      r5,[pc,#32] ; [0x1788] = 0x50000210
        0x00001768:    3508        .5      ADDS     r5,r5,#8
        0x0000176a:    1963        c.      ADDS     r3,r4,r5
        0x0000176c:    0384        ..      LSLS     r4,r0,#14
        0x0000176e:    0e25        %.      LSRS     r5,r4,#24
        0x00001770:    0584        ..      LSLS     r4,r0,#22
        0x00001772:    0ee4        ..      LSRS     r4,r4,#27
        0x00001774:    40a5        .@      LSLS     r5,r5,r4
        0x00001776:    681c        .h      LDR      r4,[r3,#0]
        0x00001778:    43ac        .C      BICS     r4,r4,r5
        0x0000177a:    9d08        ..      LDR      r5,[sp,#0x20]
        0x0000177c:    432c        ,C      ORRS     r4,r4,r5
        0x0000177e:    601c        .`      STR      r4,[r3,#0]
        0x00001780:    b009        ..      ADD      sp,sp,#0x24
        0x00001782:    bdf0        ..      POP      {r4-r7,pc}
    $d
        0x00001784:    00003460    `4..    DCD    13408
        0x00001788:    50000210    ...P    DCD    1342177808
        0x0000178c:    57c00014    ...W    DCD    1472200724
        0x00001790:    57e00015    ...W    DCD    1474297877
        0x00001794:    66400016    ..@f    DCD    1715470358
        0x00001798:    66600017    ..`f    DCD    1717567511
    $t
    i.CLK_WaitClockReady
    CLK_WaitClockReady
        0x0000179c:    4601        .F      MOV      r1,r0
        0x0000179e:    4a07        .J      LDR      r2,[pc,#28] ; [0x17bc] = 0x124f80
        0x000017a0:    e005        ..      B        0x17ae ; CLK_WaitClockReady + 18
        0x000017a2:    4610        .F      MOV      r0,r2
        0x000017a4:    1e52        R.      SUBS     r2,r2,#1
        0x000017a6:    2800        .(      CMP      r0,#0
        0x000017a8:    dc01        ..      BGT      0x17ae ; CLK_WaitClockReady + 18
        0x000017aa:    2000        .       MOVS     r0,#0
        0x000017ac:    4770        pG      BX       lr
        0x000017ae:    4804        .H      LDR      r0,[pc,#16] ; [0x17c0] = 0x50000200
        0x000017b0:    68c0        .h      LDR      r0,[r0,#0xc]
        0x000017b2:    4008        .@      ANDS     r0,r0,r1
        0x000017b4:    4288        .B      CMP      r0,r1
        0x000017b6:    d1f4        ..      BNE      0x17a2 ; CLK_WaitClockReady + 6
        0x000017b8:    2001        .       MOVS     r0,#1
        0x000017ba:    e7f7        ..      B        0x17ac ; CLK_WaitClockReady + 16
    $d
        0x000017bc:    00124f80    .O..    DCD    1200000
        0x000017c0:    50000200    ...P    DCD    1342177792
    $t
    i.CanAllocMsg
    CanAllocMsg
        0x000017c4:    b5f8        ..      PUSH     {r3-r7,lr}
        0x000017c6:    4605        .F      MOV      r5,r0
        0x000017c8:    460e        .F      MOV      r6,r1
        0x000017ca:    2700        .'      MOVS     r7,#0
        0x000017cc:    f000f920    .. .    BL       DisableInterrupt ; 0x1a10
        0x000017d0:    00a8        ..      LSLS     r0,r5,#2
        0x000017d2:    494b        KI      LDR      r1,[pc,#300] ; [0x1900] = 0x2000008c
        0x000017d4:    1840        @.      ADDS     r0,r0,r1
        0x000017d6:    42b0        .B      CMP      r0,r6
        0x000017d8:    d144        D.      BNE      0x1864 ; CanAllocMsg + 160
        0x000017da:    6830        0h      LDR      r0,[r6,#0]
        0x000017dc:    2800        .(      CMP      r0,#0
        0x000017de:    d10d        ..      BNE      0x17fc ; CanAllocMsg + 56
        0x000017e0:    20ff        .       MOVS     r0,#0xff
        0x000017e2:    3081        .0      ADDS     r0,r0,#0x81
        0x000017e4:    4368        hC      MULS     r0,r5,r0
        0x000017e6:    4947        GI      LDR      r1,[pc,#284] ; [0x1904] = 0x20002b04
        0x000017e8:    1840        @.      ADDS     r0,r0,r1
        0x000017ea:    6030        0`      STR      r0,[r6,#0]
        0x000017ec:    2001        .       MOVS     r0,#1
        0x000017ee:    6831        1h      LDR      r1,[r6,#0]
        0x000017f0:    7408        .t      STRB     r0,[r1,#0x10]
        0x000017f2:    2000        .       MOVS     r0,#0
        0x000017f4:    6831        1h      LDR      r1,[r6,#0]
        0x000017f6:    6148        Ha      STR      r0,[r1,#0x14]
        0x000017f8:    6837        7h      LDR      r7,[r6,#0]
        0x000017fa:    e07c        |.      B        0x18f6 ; CanAllocMsg + 306
        0x000017fc:    2400        .$      MOVS     r4,#0
        0x000017fe:    e00d        ..      B        0x181c ; CanAllocMsg + 88
        0x00001800:    20ff        .       MOVS     r0,#0xff
        0x00001802:    3081        .0      ADDS     r0,r0,#0x81
        0x00001804:    4368        hC      MULS     r0,r5,r0
        0x00001806:    493f        ?I      LDR      r1,[pc,#252] ; [0x1904] = 0x20002b04
        0x00001808:    1841        A.      ADDS     r1,r0,r1
        0x0000180a:    2018        .       MOVS     r0,#0x18
        0x0000180c:    4360        `C      MULS     r0,r4,r0
        0x0000180e:    1808        ..      ADDS     r0,r1,r0
        0x00001810:    7c00        .|      LDRB     r0,[r0,#0x10]
        0x00001812:    2800        .(      CMP      r0,#0
        0x00001814:    d100        ..      BNE      0x1818 ; CanAllocMsg + 84
        0x00001816:    e003        ..      B        0x1820 ; CanAllocMsg + 92
        0x00001818:    1c60        `.      ADDS     r0,r4,#1
        0x0000181a:    b2c4        ..      UXTB     r4,r0
        0x0000181c:    2c10        .,      CMP      r4,#0x10
        0x0000181e:    dbef        ..      BLT      0x1800 ; CanAllocMsg + 60
        0x00001820:    bf00        ..      NOP      
        0x00001822:    2c10        .,      CMP      r4,#0x10
        0x00001824:    da1c        ..      BGE      0x1860 ; CanAllocMsg + 156
        0x00001826:    2101        .!      MOVS     r1,#1
        0x00001828:    20ff        .       MOVS     r0,#0xff
        0x0000182a:    3081        .0      ADDS     r0,r0,#0x81
        0x0000182c:    4368        hC      MULS     r0,r5,r0
        0x0000182e:    4a35        5J      LDR      r2,[pc,#212] ; [0x1904] = 0x20002b04
        0x00001830:    1882        ..      ADDS     r2,r0,r2
        0x00001832:    2018        .       MOVS     r0,#0x18
        0x00001834:    4360        `C      MULS     r0,r4,r0
        0x00001836:    1810        ..      ADDS     r0,r2,r0
        0x00001838:    7401        .t      STRB     r1,[r0,#0x10]
        0x0000183a:    2100        .!      MOVS     r1,#0
        0x0000183c:    20ff        .       MOVS     r0,#0xff
        0x0000183e:    3081        .0      ADDS     r0,r0,#0x81
        0x00001840:    4368        hC      MULS     r0,r5,r0
        0x00001842:    4a30        0J      LDR      r2,[pc,#192] ; [0x1904] = 0x20002b04
        0x00001844:    1882        ..      ADDS     r2,r0,r2
        0x00001846:    2018        .       MOVS     r0,#0x18
        0x00001848:    4360        `C      MULS     r0,r4,r0
        0x0000184a:    1810        ..      ADDS     r0,r2,r0
        0x0000184c:    6141        Aa      STR      r1,[r0,#0x14]
        0x0000184e:    20ff        .       MOVS     r0,#0xff
        0x00001850:    3081        .0      ADDS     r0,r0,#0x81
        0x00001852:    4368        hC      MULS     r0,r5,r0
        0x00001854:    492b        +I      LDR      r1,[pc,#172] ; [0x1904] = 0x20002b04
        0x00001856:    1841        A.      ADDS     r1,r0,r1
        0x00001858:    2018        .       MOVS     r0,#0x18
        0x0000185a:    4360        `C      MULS     r0,r4,r0
        0x0000185c:    180f        ..      ADDS     r7,r1,r0
        0x0000185e:    e04a        J.      B        0x18f6 ; CanAllocMsg + 306
        0x00001860:    2700        .'      MOVS     r7,#0
        0x00001862:    e048        H.      B        0x18f6 ; CanAllocMsg + 306
        0x00001864:    00a8        ..      LSLS     r0,r5,#2
        0x00001866:    4928        (I      LDR      r1,[pc,#160] ; [0x1908] = 0x20000094
        0x00001868:    1840        @.      ADDS     r0,r0,r1
        0x0000186a:    42b0        .B      CMP      r0,r6
        0x0000186c:    d143        C.      BNE      0x18f6 ; CanAllocMsg + 306
        0x0000186e:    6830        0h      LDR      r0,[r6,#0]
        0x00001870:    2800        .(      CMP      r0,#0
        0x00001872:    d10d        ..      BNE      0x1890 ; CanAllocMsg + 204
        0x00001874:    20ff        .       MOVS     r0,#0xff
        0x00001876:    3081        .0      ADDS     r0,r0,#0x81
        0x00001878:    4368        hC      MULS     r0,r5,r0
        0x0000187a:    4924        $I      LDR      r1,[pc,#144] ; [0x190c] = 0x20002e04
        0x0000187c:    1840        @.      ADDS     r0,r0,r1
        0x0000187e:    6030        0`      STR      r0,[r6,#0]
        0x00001880:    2001        .       MOVS     r0,#1
        0x00001882:    6831        1h      LDR      r1,[r6,#0]
        0x00001884:    7408        .t      STRB     r0,[r1,#0x10]
        0x00001886:    2000        .       MOVS     r0,#0
        0x00001888:    6831        1h      LDR      r1,[r6,#0]
        0x0000188a:    6148        Ha      STR      r0,[r1,#0x14]
        0x0000188c:    6837        7h      LDR      r7,[r6,#0]
        0x0000188e:    e032        2.      B        0x18f6 ; CanAllocMsg + 306
        0x00001890:    2400        .$      MOVS     r4,#0
        0x00001892:    e00d        ..      B        0x18b0 ; CanAllocMsg + 236
        0x00001894:    20ff        .       MOVS     r0,#0xff
        0x00001896:    3081        .0      ADDS     r0,r0,#0x81
        0x00001898:    4368        hC      MULS     r0,r5,r0
        0x0000189a:    491c        .I      LDR      r1,[pc,#112] ; [0x190c] = 0x20002e04
        0x0000189c:    1841        A.      ADDS     r1,r0,r1
        0x0000189e:    2018        .       MOVS     r0,#0x18
        0x000018a0:    4360        `C      MULS     r0,r4,r0
        0x000018a2:    1808        ..      ADDS     r0,r1,r0
        0x000018a4:    7c00        .|      LDRB     r0,[r0,#0x10]
        0x000018a6:    2800        .(      CMP      r0,#0
        0x000018a8:    d100        ..      BNE      0x18ac ; CanAllocMsg + 232
        0x000018aa:    e003        ..      B        0x18b4 ; CanAllocMsg + 240
        0x000018ac:    1c60        `.      ADDS     r0,r4,#1
        0x000018ae:    b2c4        ..      UXTB     r4,r0
        0x000018b0:    2c10        .,      CMP      r4,#0x10
        0x000018b2:    dbef        ..      BLT      0x1894 ; CanAllocMsg + 208
        0x000018b4:    bf00        ..      NOP      
        0x000018b6:    2c10        .,      CMP      r4,#0x10
        0x000018b8:    da1c        ..      BGE      0x18f4 ; CanAllocMsg + 304
        0x000018ba:    2101        .!      MOVS     r1,#1
        0x000018bc:    20ff        .       MOVS     r0,#0xff
        0x000018be:    3081        .0      ADDS     r0,r0,#0x81
        0x000018c0:    4368        hC      MULS     r0,r5,r0
        0x000018c2:    4a12        .J      LDR      r2,[pc,#72] ; [0x190c] = 0x20002e04
        0x000018c4:    1882        ..      ADDS     r2,r0,r2
        0x000018c6:    2018        .       MOVS     r0,#0x18
        0x000018c8:    4360        `C      MULS     r0,r4,r0
        0x000018ca:    1810        ..      ADDS     r0,r2,r0
        0x000018cc:    7401        .t      STRB     r1,[r0,#0x10]
        0x000018ce:    2100        .!      MOVS     r1,#0
        0x000018d0:    20ff        .       MOVS     r0,#0xff
        0x000018d2:    3081        .0      ADDS     r0,r0,#0x81
        0x000018d4:    4368        hC      MULS     r0,r5,r0
        0x000018d6:    4a0d        .J      LDR      r2,[pc,#52] ; [0x190c] = 0x20002e04
        0x000018d8:    1882        ..      ADDS     r2,r0,r2
        0x000018da:    2018        .       MOVS     r0,#0x18
        0x000018dc:    4360        `C      MULS     r0,r4,r0
        0x000018de:    1810        ..      ADDS     r0,r2,r0
        0x000018e0:    6141        Aa      STR      r1,[r0,#0x14]
        0x000018e2:    20ff        .       MOVS     r0,#0xff
        0x000018e4:    3081        .0      ADDS     r0,r0,#0x81
        0x000018e6:    4368        hC      MULS     r0,r5,r0
        0x000018e8:    4908        .I      LDR      r1,[pc,#32] ; [0x190c] = 0x20002e04
        0x000018ea:    1841        A.      ADDS     r1,r0,r1
        0x000018ec:    2018        .       MOVS     r0,#0x18
        0x000018ee:    4360        `C      MULS     r0,r4,r0
        0x000018f0:    180f        ..      ADDS     r7,r1,r0
        0x000018f2:    e000        ..      B        0x18f6 ; CanAllocMsg + 306
        0x000018f4:    2700        .'      MOVS     r7,#0
        0x000018f6:    f000f895    ....    BL       EnableInterrupt ; 0x1a24
        0x000018fa:    4638        8F      MOV      r0,r7
        0x000018fc:    bdf8        ..      POP      {r3-r7,pc}
    $d
        0x000018fe:    0000        ..      DCW    0
        0x00001900:    2000008c    ...     DCD    536871052
        0x00001904:    20002b04    .+.     DCD    536881924
        0x00001908:    20000094    ...     DCD    536871060
        0x0000190c:    20002e04    ...     DCD    536882692
    $t
    i.CanFreeMsgQueue
    CanFreeMsgQueue
        0x00001910:    b570        p.      PUSH     {r4-r6,lr}
        0x00001912:    4605        .F      MOV      r5,r0
        0x00001914:    460e        .F      MOV      r6,r1
        0x00001916:    f000f87b    ..{.    BL       DisableInterrupt ; 0x1a10
        0x0000191a:    2400        .$      MOVS     r4,#0
        0x0000191c:    e014        ..      B        0x1948 ; CanFreeMsgQueue + 56
        0x0000191e:    2100        .!      MOVS     r1,#0
        0x00001920:    20ff        .       MOVS     r0,#0xff
        0x00001922:    3081        .0      ADDS     r0,r0,#0x81
        0x00001924:    4368        hC      MULS     r0,r5,r0
        0x00001926:    4a0c        .J      LDR      r2,[pc,#48] ; [0x1958] = 0x20002e04
        0x00001928:    1882        ..      ADDS     r2,r0,r2
        0x0000192a:    2018        .       MOVS     r0,#0x18
        0x0000192c:    4360        `C      MULS     r0,r4,r0
        0x0000192e:    1810        ..      ADDS     r0,r2,r0
        0x00001930:    7401        .t      STRB     r1,[r0,#0x10]
        0x00001932:    20ff        .       MOVS     r0,#0xff
        0x00001934:    3081        .0      ADDS     r0,r0,#0x81
        0x00001936:    4368        hC      MULS     r0,r5,r0
        0x00001938:    4a07        .J      LDR      r2,[pc,#28] ; [0x1958] = 0x20002e04
        0x0000193a:    1882        ..      ADDS     r2,r0,r2
        0x0000193c:    2018        .       MOVS     r0,#0x18
        0x0000193e:    4360        `C      MULS     r0,r4,r0
        0x00001940:    1810        ..      ADDS     r0,r2,r0
        0x00001942:    6141        Aa      STR      r1,[r0,#0x14]
        0x00001944:    1c60        `.      ADDS     r0,r4,#1
        0x00001946:    b2c4        ..      UXTB     r4,r0
        0x00001948:    2c10        .,      CMP      r4,#0x10
        0x0000194a:    dbe8        ..      BLT      0x191e ; CanFreeMsgQueue + 14
        0x0000194c:    2000        .       MOVS     r0,#0
        0x0000194e:    6030        0`      STR      r0,[r6,#0]
        0x00001950:    f000f868    ..h.    BL       EnableInterrupt ; 0x1a24
        0x00001954:    bd70        p.      POP      {r4-r6,pc}
    $d
        0x00001956:    0000        ..      DCW    0
        0x00001958:    20002e04    ...     DCD    536882692
    $t
    i.CanMsgQueueSortedInsert
    CanMsgQueueSortedInsert
        0x0000195c:    b5f8        ..      PUSH     {r3-r7,lr}
        0x0000195e:    4605        .F      MOV      r5,r0
        0x00001960:    460c        .F      MOV      r4,r1
        0x00001962:    682e        .h      LDR      r6,[r5,#0]
        0x00001964:    2d00        .-      CMP      r5,#0
        0x00001966:    d001        ..      BEQ      0x196c ; CanMsgQueueSortedInsert + 16
        0x00001968:    2c00        .,      CMP      r4,#0
        0x0000196a:    d100        ..      BNE      0x196e ; CanMsgQueueSortedInsert + 18
        0x0000196c:    bdf8        ..      POP      {r3-r7,pc}
        0x0000196e:    6828        (h      LDR      r0,[r5,#0]
        0x00001970:    2800        .(      CMP      r0,#0
        0x00001972:    d101        ..      BNE      0x1978 ; CanMsgQueueSortedInsert + 28
        0x00001974:    602c        ,`      STR      r4,[r5,#0]
        0x00001976:    e7f9        ..      B        0x196c ; CanMsgQueueSortedInsert + 16
        0x00001978:    6828        (h      LDR      r0,[r5,#0]
        0x0000197a:    42a0        .B      CMP      r0,r4
        0x0000197c:    d100        ..      BNE      0x1980 ; CanMsgQueueSortedInsert + 36
        0x0000197e:    e7f5        ..      B        0x196c ; CanMsgQueueSortedInsert + 16
        0x00001980:    f000f846    ..F.    BL       DisableInterrupt ; 0x1a10
        0x00001984:    4637        7F      MOV      r7,r6
        0x00001986:    e011        ..      B        0x19ac ; CanMsgQueueSortedInsert + 80
        0x00001988:    6870        ph      LDR      r0,[r6,#4]
        0x0000198a:    6861        ah      LDR      r1,[r4,#4]
        0x0000198c:    4288        .B      CMP      r0,r1
        0x0000198e:    d802        ..      BHI      0x1996 ; CanMsgQueueSortedInsert + 58
        0x00001990:    4637        7F      MOV      r7,r6
        0x00001992:    6976        vi      LDR      r6,[r6,#0x14]
        0x00001994:    e00a        ..      B        0x19ac ; CanMsgQueueSortedInsert + 80
        0x00001996:    6828        (h      LDR      r0,[r5,#0]
        0x00001998:    42b0        .B      CMP      r0,r6
        0x0000199a:    d102        ..      BNE      0x19a2 ; CanMsgQueueSortedInsert + 70
        0x0000199c:    602c        ,`      STR      r4,[r5,#0]
        0x0000199e:    6166        fa      STR      r6,[r4,#0x14]
        0x000019a0:    e001        ..      B        0x19a6 ; CanMsgQueueSortedInsert + 74
        0x000019a2:    617c        |a      STR      r4,[r7,#0x14]
        0x000019a4:    6166        fa      STR      r6,[r4,#0x14]
        0x000019a6:    f000f83d    ..=.    BL       EnableInterrupt ; 0x1a24
        0x000019aa:    e7df        ..      B        0x196c ; CanMsgQueueSortedInsert + 16
        0x000019ac:    2e00        ..      CMP      r6,#0
        0x000019ae:    d1eb        ..      BNE      0x1988 ; CanMsgQueueSortedInsert + 44
        0x000019b0:    617c        |a      STR      r4,[r7,#0x14]
        0x000019b2:    f000f837    ..7.    BL       EnableInterrupt ; 0x1a24
        0x000019b6:    bf00        ..      NOP      
        0x000019b8:    e7d8        ..      B        0x196c ; CanMsgQueueSortedInsert + 16
    i.CanMsgRemove
    CanMsgRemove
        0x000019ba:    b5f8        ..      PUSH     {r3-r7,lr}
        0x000019bc:    4606        .F      MOV      r6,r0
        0x000019be:    460c        .F      MOV      r4,r1
        0x000019c0:    6835        5h      LDR      r5,[r6,#0]
        0x000019c2:    6830        0h      LDR      r0,[r6,#0]
        0x000019c4:    2800        .(      CMP      r0,#0
        0x000019c6:    d001        ..      BEQ      0x19cc ; CanMsgRemove + 18
        0x000019c8:    2c00        .,      CMP      r4,#0
        0x000019ca:    d100        ..      BNE      0x19ce ; CanMsgRemove + 20
        0x000019cc:    bdf8        ..      POP      {r3-r7,pc}
        0x000019ce:    6830        0h      LDR      r0,[r6,#0]
        0x000019d0:    42a0        .B      CMP      r0,r4
        0x000019d2:    d108        ..      BNE      0x19e6 ; CanMsgRemove + 44
        0x000019d4:    f000f81c    ....    BL       DisableInterrupt ; 0x1a10
        0x000019d8:    6960        `i      LDR      r0,[r4,#0x14]
        0x000019da:    6030        0`      STR      r0,[r6,#0]
        0x000019dc:    2000        .       MOVS     r0,#0
        0x000019de:    7420         t      STRB     r0,[r4,#0x10]
        0x000019e0:    f000f820    .. .    BL       EnableInterrupt ; 0x1a24
        0x000019e4:    e011        ..      B        0x1a0a ; CanMsgRemove + 80
        0x000019e6:    f000f813    ....    BL       DisableInterrupt ; 0x1a10
        0x000019ea:    462f        /F      MOV      r7,r5
        0x000019ec:    e001        ..      B        0x19f2 ; CanMsgRemove + 56
        0x000019ee:    462f        /F      MOV      r7,r5
        0x000019f0:    696d        mi      LDR      r5,[r5,#0x14]
        0x000019f2:    42a5        .B      CMP      r5,r4
        0x000019f4:    d001        ..      BEQ      0x19fa ; CanMsgRemove + 64
        0x000019f6:    2d00        .-      CMP      r5,#0
        0x000019f8:    d1f9        ..      BNE      0x19ee ; CanMsgRemove + 52
        0x000019fa:    2d00        .-      CMP      r5,#0
        0x000019fc:    d003        ..      BEQ      0x1a06 ; CanMsgRemove + 76
        0x000019fe:    6960        `i      LDR      r0,[r4,#0x14]
        0x00001a00:    6178        xa      STR      r0,[r7,#0x14]
        0x00001a02:    2000        .       MOVS     r0,#0
        0x00001a04:    7420         t      STRB     r0,[r4,#0x10]
        0x00001a06:    f000f80d    ....    BL       EnableInterrupt ; 0x1a24
        0x00001a0a:    bf00        ..      NOP      
        0x00001a0c:    e7de        ..      B        0x19cc ; CanMsgRemove + 18
        0x00001a0e:    0000        ..      MOVS     r0,r0
    i.DisableInterrupt
    DisableInterrupt
        0x00001a10:    b672        r.      CPSID    i
        0x00001a12:    4803        .H      LDR      r0,[pc,#12] ; [0x1a20] = 0x20000078
        0x00001a14:    6800        .h      LDR      r0,[r0,#0]
        0x00001a16:    1c40        @.      ADDS     r0,r0,#1
        0x00001a18:    4901        .I      LDR      r1,[pc,#4] ; [0x1a20] = 0x20000078
        0x00001a1a:    6008        .`      STR      r0,[r1,#0]
        0x00001a1c:    4770        pG      BX       lr
    $d
        0x00001a1e:    0000        ..      DCW    0
        0x00001a20:    20000078    x..     DCD    536871032
    $t
    i.EnableInterrupt
    EnableInterrupt
        0x00001a24:    4807        .H      LDR      r0,[pc,#28] ; [0x1a44] = 0x20000078
        0x00001a26:    6800        .h      LDR      r0,[r0,#0]
        0x00001a28:    2800        .(      CMP      r0,#0
        0x00001a2a:    d009        ..      BEQ      0x1a40 ; EnableInterrupt + 28
        0x00001a2c:    4805        .H      LDR      r0,[pc,#20] ; [0x1a44] = 0x20000078
        0x00001a2e:    6800        .h      LDR      r0,[r0,#0]
        0x00001a30:    1e40        @.      SUBS     r0,r0,#1
        0x00001a32:    4904        .I      LDR      r1,[pc,#16] ; [0x1a44] = 0x20000078
        0x00001a34:    6008        .`      STR      r0,[r1,#0]
        0x00001a36:    4608        .F      MOV      r0,r1
        0x00001a38:    6800        .h      LDR      r0,[r0,#0]
        0x00001a3a:    2800        .(      CMP      r0,#0
        0x00001a3c:    d100        ..      BNE      0x1a40 ; EnableInterrupt + 28
        0x00001a3e:    b662        b.      CPSIE    i
        0x00001a40:    4770        pG      BX       lr
    $d
        0x00001a42:    0000        ..      DCW    0
        0x00001a44:    20000078    x..     DCD    536871032
    $t
    i.ForwardMsgToUart
    ForwardMsgToUart
        0x00001a48:    b5f8        ..      PUSH     {r3-r7,lr}
        0x00001a4a:    4604        .F      MOV      r4,r0
        0x00001a4c:    2600        .&      MOVS     r6,#0
        0x00001a4e:    2700        .'      MOVS     r7,#0
        0x00001a50:    7a20         z      LDRB     r0,[r4,#8]
        0x00001a52:    2180        .!      MOVS     r1,#0x80
        0x00001a54:    4008        .@      ANDS     r0,r0,r1
        0x00001a56:    2800        .(      CMP      r0,#0
        0x00001a58:    d02d        -.      BEQ      0x1ab6 ; ForwardMsgToUart + 110
        0x00001a5a:    4855        UH      LDR      r0,[pc,#340] ; [0x1bb0] = 0x200000ac
        0x00001a5c:    7800        .x      LDRB     r0,[r0,#0]
        0x00001a5e:    2800        .(      CMP      r0,#0
        0x00001a60:    d159        Y.      BNE      0x1b16 ; ForwardMsgToUart + 206
        0x00001a62:    7a20         z      LDRB     r0,[r4,#8]
        0x00001a64:    0640        @.      LSLS     r0,r0,#25
        0x00001a66:    0e40        @.      LSRS     r0,r0,#25
        0x00001a68:    2800        .(      CMP      r0,#0
        0x00001a6a:    d154        T.      BNE      0x1b16 ; ForwardMsgToUart + 206
        0x00001a6c:    2001        .       MOVS     r0,#1
        0x00001a6e:    4950        PI      LDR      r1,[pc,#320] ; [0x1bb0] = 0x200000ac
        0x00001a70:    7008        .p      STRB     r0,[r1,#0]
        0x00001a72:    7b20         {      LDRB     r0,[r4,#0xc]
        0x00001a74:    0200        ..      LSLS     r0,r0,#8
        0x00001a76:    7b61        a{      LDRB     r1,[r4,#0xd]
        0x00001a78:    4308        .C      ORRS     r0,r0,r1
        0x00001a7a:    494e        NI      LDR      r1,[pc,#312] ; [0x1bb4] = 0x200000a6
        0x00001a7c:    8008        ..      STRH     r0,[r1,#0]
        0x00001a7e:    4608        .F      MOV      r0,r1
        0x00001a80:    8800        ..      LDRH     r0,[r0,#0]
        0x00001a82:    2800        .(      CMP      r0,#0
        0x00001a84:    d103        ..      BNE      0x1a8e ; ForwardMsgToUart + 70
        0x00001a86:    bf00        ..      NOP      
        0x00001a88:    4949        II      LDR      r1,[pc,#292] ; [0x1bb0] = 0x200000ac
        0x00001a8a:    7008        .p      STRB     r0,[r1,#0]
        0x00001a8c:    bdf8        ..      POP      {r3-r7,pc}
        0x00001a8e:    4949        II      LDR      r1,[pc,#292] ; [0x1bb4] = 0x200000a6
        0x00001a90:    8809        ..      LDRH     r1,[r1,#0]
        0x00001a92:    1d08        ..      ADDS     r0,r1,#4
        0x00001a94:    f001fb08    ....    BL       malloc ; 0x30a8
        0x00001a98:    4605        .F      MOV      r5,r0
        0x00001a9a:    2d00        .-      CMP      r5,#0
        0x00001a9c:    d107        ..      BNE      0x1aae ; ForwardMsgToUart + 102
        0x00001a9e:    a046        F.      ADR      r0,{pc}+0x11a ; 0x1bb8
        0x00001aa0:    f000ff52    ..R.    BL       __0printf$8 ; 0x2948
        0x00001aa4:    2700        .'      MOVS     r7,#0
        0x00001aa6:    2000        .       MOVS     r0,#0
        0x00001aa8:    4941        AI      LDR      r1,[pc,#260] ; [0x1bb0] = 0x200000ac
        0x00001aaa:    7008        .p      STRB     r0,[r1,#0]
        0x00001aac:    e7ee        ..      B        0x1a8c ; ForwardMsgToUart + 68
        0x00001aae:    1d28        (.      ADDS     r0,r5,#4
        0x00001ab0:    4947        GI      LDR      r1,[pc,#284] ; [0x1bd0] = 0x200000a8
        0x00001ab2:    6008        .`      STR      r0,[r1,#0]
        0x00001ab4:    e02f        /.      B        0x1b16 ; ForwardMsgToUart + 206
        0x00001ab6:    483e        >H      LDR      r0,[pc,#248] ; [0x1bb0] = 0x200000ac
        0x00001ab8:    7800        .x      LDRB     r0,[r0,#0]
        0x00001aba:    2801        .(      CMP      r0,#1
        0x00001abc:    d101        ..      BNE      0x1ac2 ; ForwardMsgToUart + 122
        0x00001abe:    2701        .'      MOVS     r7,#1
        0x00001ac0:    e026        &.      B        0x1b10 ; ForwardMsgToUart + 200
        0x00001ac2:    7a20         z      LDRB     r0,[r4,#8]
        0x00001ac4:    0640        @.      LSLS     r0,r0,#25
        0x00001ac6:    0e40        @.      LSRS     r0,r0,#25
        0x00001ac8:    2800        .(      CMP      r0,#0
        0x00001aca:    d121        !.      BNE      0x1b10 ; ForwardMsgToUart + 200
        0x00001acc:    7b20         {      LDRB     r0,[r4,#0xc]
        0x00001ace:    0200        ..      LSLS     r0,r0,#8
        0x00001ad0:    7b61        a{      LDRB     r1,[r4,#0xd]
        0x00001ad2:    4308        .C      ORRS     r0,r0,r1
        0x00001ad4:    4937        7I      LDR      r1,[pc,#220] ; [0x1bb4] = 0x200000a6
        0x00001ad6:    8008        ..      STRH     r0,[r1,#0]
        0x00001ad8:    4608        .F      MOV      r0,r1
        0x00001ada:    8800        ..      LDRH     r0,[r0,#0]
        0x00001adc:    2800        .(      CMP      r0,#0
        0x00001ade:    d103        ..      BNE      0x1ae8 ; ForwardMsgToUart + 160
        0x00001ae0:    2700        .'      MOVS     r7,#0
        0x00001ae2:    4933        3I      LDR      r1,[pc,#204] ; [0x1bb0] = 0x200000ac
        0x00001ae4:    7008        .p      STRB     r0,[r1,#0]
        0x00001ae6:    e7d1        ..      B        0x1a8c ; ForwardMsgToUart + 68
        0x00001ae8:    4932        2I      LDR      r1,[pc,#200] ; [0x1bb4] = 0x200000a6
        0x00001aea:    8809        ..      LDRH     r1,[r1,#0]
        0x00001aec:    1d08        ..      ADDS     r0,r1,#4
        0x00001aee:    f001fadb    ....    BL       malloc ; 0x30a8
        0x00001af2:    4605        .F      MOV      r5,r0
        0x00001af4:    2d00        .-      CMP      r5,#0
        0x00001af6:    d107        ..      BNE      0x1b08 ; ForwardMsgToUart + 192
        0x00001af8:    a02f        /.      ADR      r0,{pc}+0xc0 ; 0x1bb8
        0x00001afa:    f000ff25    ..%.    BL       __0printf$8 ; 0x2948
        0x00001afe:    2700        .'      MOVS     r7,#0
        0x00001b00:    2000        .       MOVS     r0,#0
        0x00001b02:    492b        +I      LDR      r1,[pc,#172] ; [0x1bb0] = 0x200000ac
        0x00001b04:    7008        .p      STRB     r0,[r1,#0]
        0x00001b06:    e7c1        ..      B        0x1a8c ; ForwardMsgToUart + 68
        0x00001b08:    1d28        (.      ADDS     r0,r5,#4
        0x00001b0a:    4931        1I      LDR      r1,[pc,#196] ; [0x1bd0] = 0x200000a8
        0x00001b0c:    6008        .`      STR      r0,[r1,#0]
        0x00001b0e:    2701        .'      MOVS     r7,#1
        0x00001b10:    2000        .       MOVS     r0,#0
        0x00001b12:    4927        'I      LDR      r1,[pc,#156] ; [0x1bb0] = 0x200000ac
        0x00001b14:    7008        .p      STRB     r0,[r1,#0]
        0x00001b16:    4826        &H      LDR      r0,[pc,#152] ; [0x1bb0] = 0x200000ac
        0x00001b18:    7800        .x      LDRB     r0,[r0,#0]
        0x00001b1a:    2800        .(      CMP      r0,#0
        0x00001b1c:    d101        ..      BNE      0x1b22 ; ForwardMsgToUart + 218
        0x00001b1e:    2f00        ./      CMP      r7,#0
        0x00001b20:    d031        1.      BEQ      0x1b86 ; ForwardMsgToUart + 318
        0x00001b22:    7a20         z      LDRB     r0,[r4,#8]
        0x00001b24:    0640        @.      LSLS     r0,r0,#25
        0x00001b26:    0e40        @.      LSRS     r0,r0,#25
        0x00001b28:    00c1        ..      LSLS     r1,r0,#3
        0x00001b2a:    1a08        ..      SUBS     r0,r1,r0
        0x00001b2c:    b286        ..      UXTH     r6,r0
        0x00001b2e:    20ff        .       MOVS     r0,#0xff
        0x00001b30:    3001        .0      ADDS     r0,#1
        0x00001b32:    4286        .B      CMP      r6,r0
        0x00001b34:    dc03        ..      BGT      0x1b3e ; ForwardMsgToUart + 246
        0x00001b36:    481f        .H      LDR      r0,[pc,#124] ; [0x1bb4] = 0x200000a6
        0x00001b38:    8800        ..      LDRH     r0,[r0,#0]
        0x00001b3a:    4286        .B      CMP      r6,r0
        0x00001b3c:    db07        ..      BLT      0x1b4e ; ForwardMsgToUart + 262
        0x00001b3e:    a025        %.      ADR      r0,{pc}+0x96 ; 0x1bd4
        0x00001b40:    f000ff02    ....    BL       __0printf$8 ; 0x2948
        0x00001b44:    2000        .       MOVS     r0,#0
        0x00001b46:    491a        .I      LDR      r1,[pc,#104] ; [0x1bb0] = 0x200000ac
        0x00001b48:    7008        .p      STRB     r0,[r1,#0]
        0x00001b4a:    2700        .'      MOVS     r7,#0
        0x00001b4c:    e01b        ..      B        0x1b86 ; ForwardMsgToUart + 318
        0x00001b4e:    4820         H      LDR      r0,[pc,#128] ; [0x1bd0] = 0x200000a8
        0x00001b50:    6800        .h      LDR      r0,[r0,#0]
        0x00001b52:    2800        .(      CMP      r0,#0
        0x00001b54:    d017        ..      BEQ      0x1b86 ; ForwardMsgToUart + 318
        0x00001b56:    1df0        ..      ADDS     r0,r6,#7
        0x00001b58:    4916        .I      LDR      r1,[pc,#88] ; [0x1bb4] = 0x200000a6
        0x00001b5a:    8809        ..      LDRH     r1,[r1,#0]
        0x00001b5c:    4288        .B      CMP      r0,r1
        0x00001b5e:    dd0a        ..      BLE      0x1b76 ; ForwardMsgToUart + 302
        0x00001b60:    4914        .I      LDR      r1,[pc,#80] ; [0x1bb4] = 0x200000a6
        0x00001b62:    8809        ..      LDRH     r1,[r1,#0]
        0x00001b64:    1b8a        ..      SUBS     r2,r1,r6
        0x00001b66:    491a        .I      LDR      r1,[pc,#104] ; [0x1bd0] = 0x200000a8
        0x00001b68:    6809        .h      LDR      r1,[r1,#0]
        0x00001b6a:    1988        ..      ADDS     r0,r1,r6
        0x00001b6c:    4621        !F      MOV      r1,r4
        0x00001b6e:    3109        .1      ADDS     r1,r1,#9
        0x00001b70:    f7fefb40    ..@.    BL       __aeabi_memcpy ; 0x1f4
        0x00001b74:    e007        ..      B        0x1b86 ; ForwardMsgToUart + 318
        0x00001b76:    4916        .I      LDR      r1,[pc,#88] ; [0x1bd0] = 0x200000a8
        0x00001b78:    6809        .h      LDR      r1,[r1,#0]
        0x00001b7a:    1988        ..      ADDS     r0,r1,r6
        0x00001b7c:    2207        ."      MOVS     r2,#7
        0x00001b7e:    4621        !F      MOV      r1,r4
        0x00001b80:    3109        .1      ADDS     r1,r1,#9
        0x00001b82:    f7fefb37    ..7.    BL       __aeabi_memcpy ; 0x1f4
        0x00001b86:    2f01        ./      CMP      r7,#1
        0x00001b88:    d110        ..      BNE      0x1bac ; ForwardMsgToUart + 356
        0x00001b8a:    4811        .H      LDR      r0,[pc,#68] ; [0x1bd0] = 0x200000a8
        0x00001b8c:    6800        .h      LDR      r0,[r0,#0]
        0x00001b8e:    2800        .(      CMP      r0,#0
        0x00001b90:    d00c        ..      BEQ      0x1bac ; ForwardMsgToUart + 356
        0x00001b92:    480f        .H      LDR      r0,[pc,#60] ; [0x1bd0] = 0x200000a8
        0x00001b94:    6800        .h      LDR      r0,[r0,#0]
        0x00001b96:    1f05        ..      SUBS     r5,r0,#4
        0x00001b98:    4629        )F      MOV      r1,r5
        0x00001b9a:    4814        .H      LDR      r0,[pc,#80] ; [0x1bec] = 0x200028dc
        0x00001b9c:    f001f9c4    ....    BL       list_insert_tail ; 0x2f28
        0x00001ba0:    2700        .'      MOVS     r7,#0
        0x00001ba2:    2000        .       MOVS     r0,#0
        0x00001ba4:    4902        .I      LDR      r1,[pc,#8] ; [0x1bb0] = 0x200000ac
        0x00001ba6:    7008        .p      STRB     r0,[r1,#0]
        0x00001ba8:    4909        .I      LDR      r1,[pc,#36] ; [0x1bd0] = 0x200000a8
        0x00001baa:    6008        .`      STR      r0,[r1,#0]
        0x00001bac:    bf00        ..      NOP      
        0x00001bae:    e76d        m.      B        0x1a8c ; ForwardMsgToUart + 68
    $d
        0x00001bb0:    200000ac    ...     DCD    536871084
        0x00001bb4:    200000a6    ...     DCD    536871078
        0x00001bb8:    74726175    uart    DCD    1953653109
        0x00001bbc:    20787420     tx     DCD    544764960
        0x00001bc0:    75657571    queu    DCD    1969583473
        0x00001bc4:    73692065    e is    DCD    1936269413
        0x00001bc8:    6c756620     ful    DCD    1819633184
        0x00001bcc:    000a216c    l!..    DCD    663916
        0x00001bd0:    200000a8    ...     DCD    536871080
        0x00001bd4:    2067734d    Msg     DCD    543650637
        0x00001bd8:    676e656c    leng    DCD    1735288172
        0x00001bdc:    74206874    th t    DCD    1948280948
        0x00001be0:    6c206f6f    oo l    DCD    1814065007
        0x00001be4:    21676e6f    ong!    DCD    560426607
        0x00001be8:    00000000    ....    DCD    0
        0x00001bec:    200028dc    .(.     DCD    536881372
    $t
    i.GPIO_SetMode
    GPIO_SetMode
        0x00001bf0:    b570        p.      PUSH     {r4-r6,lr}
        0x00001bf2:    4603        .F      MOV      r3,r0
        0x00001bf4:    2000        .       MOVS     r0,#0
        0x00001bf6:    e00f        ..      B        0x1c18 ; GPIO_SetMode + 40
        0x00001bf8:    2401        .$      MOVS     r4,#1
        0x00001bfa:    4084        .@      LSLS     r4,r4,r0
        0x00001bfc:    400c        .@      ANDS     r4,r4,r1
        0x00001bfe:    2c00        .,      CMP      r4,#0
        0x00001c00:    d009        ..      BEQ      0x1c16 ; GPIO_SetMode + 38
        0x00001c02:    681c        .h      LDR      r4,[r3,#0]
        0x00001c04:    0046        F.      LSLS     r6,r0,#1
        0x00001c06:    2503        .%      MOVS     r5,#3
        0x00001c08:    40b5        .@      LSLS     r5,r5,r6
        0x00001c0a:    43ac        .C      BICS     r4,r4,r5
        0x00001c0c:    0046        F.      LSLS     r6,r0,#1
        0x00001c0e:    4615        .F      MOV      r5,r2
        0x00001c10:    40b5        .@      LSLS     r5,r5,r6
        0x00001c12:    432c        ,C      ORRS     r4,r4,r5
        0x00001c14:    601c        .`      STR      r4,[r3,#0]
        0x00001c16:    1c40        @.      ADDS     r0,r0,#1
        0x00001c18:    2810        .(      CMP      r0,#0x10
        0x00001c1a:    d3ed        ..      BCC      0x1bf8 ; GPIO_SetMode + 8
        0x00001c1c:    bd70        p.      POP      {r4-r6,pc}
    i.GetFreeIF
    GetFreeIF
        0x00001c1e:    4601        .F      MOV      r1,r0
        0x00001c20:    6a08        .j      LDR      r0,[r1,#0x20]
        0x00001c22:    2201        ."      MOVS     r2,#1
        0x00001c24:    03d2        ..      LSLS     r2,r2,#15
        0x00001c26:    4010        .@      ANDS     r0,r0,r2
        0x00001c28:    2800        .(      CMP      r0,#0
        0x00001c2a:    d100        ..      BNE      0x1c2e ; GetFreeIF + 16
        0x00001c2c:    4770        pG      BX       lr
        0x00001c2e:    2080        .       MOVS     r0,#0x80
        0x00001c30:    5840        @X      LDR      r0,[r0,r1]
        0x00001c32:    2201        ."      MOVS     r2,#1
        0x00001c34:    03d2        ..      LSLS     r2,r2,#15
        0x00001c36:    4010        .@      ANDS     r0,r0,r2
        0x00001c38:    2800        .(      CMP      r0,#0
        0x00001c3a:    d101        ..      BNE      0x1c40 ; GetFreeIF + 34
        0x00001c3c:    2001        .       MOVS     r0,#1
        0x00001c3e:    e7f5        ..      B        0x1c2c ; GetFreeIF + 14
        0x00001c40:    2002        .       MOVS     r0,#2
        0x00001c42:    e7f3        ..      B        0x1c2c ; GetFreeIF + 14
    i.GetRunTime
    GetRunTime
        0x00001c44:    b672        r.      CPSID    i
        0x00001c46:    4902        .I      LDR      r1,[pc,#8] ; [0x1c50] = 0x20000044
        0x00001c48:    6808        .h      LDR      r0,[r1,#0]
        0x00001c4a:    b662        b.      CPSIE    i
        0x00001c4c:    4770        pG      BX       lr
    $d
        0x00001c4e:    0000        ..      DCW    0
        0x00001c50:    20000044    D..     DCD    536870980
    $t
    i.GpioToPort
    GpioToPort
        0x00001c54:    4601        .F      MOV      r1,r0
        0x00001c56:    0e08        ..      LSRS     r0,r1,#24
        0x00001c58:    0180        ..      LSLS     r0,r0,#6
        0x00001c5a:    4a01        .J      LDR      r2,[pc,#4] ; [0x1c60] = 0x50004000
        0x00001c5c:    1880        ..      ADDS     r0,r0,r2
        0x00001c5e:    4770        pG      BX       lr
    $d
        0x00001c60:    50004000    .@.P    DCD    1342193664
    $t
    i.Hard_Fault_Handler
    Hard_Fault_Handler
    __tagsym$$used
        0x00001c64:    4604        .F      MOV      r4,r0
        0x00001c66:    a004        ..      ADR      r0,{pc}+0x12 ; 0x1c78
        0x00001c68:    f000fe6e    ..n.    BL       __0printf$8 ; 0x2948
        0x00001c6c:    4620         F      MOV      r0,r4
        0x00001c6e:    f001fb3f    ..?.    BL       stackDump ; 0x32f0
        0x00001c72:    bf00        ..      NOP      
        0x00001c74:    e7fe        ..      B        0x1c74 ; Hard_Fault_Handler + 16
    $d
        0x00001c76:    0000        ..      DCW    0
        0x00001c78:    48206e49    In H    DCD    1210084937
        0x00001c7c:    20647261    ard     DCD    543453793
        0x00001c80:    6c756146    Faul    DCD    1819631942
        0x00001c84:    61482074    t Ha    DCD    1632116852
        0x00001c88:    656c646e    ndle    DCD    1701602414
        0x00001c8c:    00000a72    r...    DCD    2674
    $t
    i.HardwareTimerInit
    HardwareTimerInit
        0x00001c90:    b510        ..      PUSH     {r4,lr}
        0x00001c92:    f000fa49    ..I.    BL       SYS_UnlockReg ; 0x2128
        0x00001c96:    4808        .H      LDR      r0,[pc,#32] ; [0x1cb8] = 0x5ec00003
        0x00001c98:    f7fffa5c    ..\.    BL       CLK_EnableModuleClock ; 0x1154
        0x00001c9c:    2200        ."      MOVS     r2,#0
        0x00001c9e:    2101        .!      MOVS     r1,#1
        0x00001ca0:    0349        I.      LSLS     r1,r1,#13
        0x00001ca2:    4805        .H      LDR      r0,[pc,#20] ; [0x1cb8] = 0x5ec00003
        0x00001ca4:    f7fffcf6    ....    BL       CLK_SetModuleClock ; 0x1694
        0x00001ca8:    4a04        .J      LDR      r2,[pc,#16] ; [0x1cbc] = 0xf4240
        0x00001caa:    2100        .!      MOVS     r1,#0
        0x00001cac:    4804        .H      LDR      r0,[pc,#16] ; [0x1cc0] = 0x40010020
        0x00001cae:    f000fc45    ..E.    BL       TIMER_Open ; 0x253c
        0x00001cb2:    f000fa1b    ....    BL       SYS_LockReg ; 0x20ec
        0x00001cb6:    bd10        ..      POP      {r4,pc}
    $d
        0x00001cb8:    5ec00003    ...^    DCD    1589641219
        0x00001cbc:    000f4240    @B..    DCD    1000000
        0x00001cc0:    40010020     ..@    DCD    1073807392
    $t
    i.NVIC_DisableIRQ
    NVIC_DisableIRQ
        0x00001cc4:    06c2        ..      LSLS     r2,r0,#27
        0x00001cc6:    0ed2        ..      LSRS     r2,r2,#27
        0x00001cc8:    2101        .!      MOVS     r1,#1
        0x00001cca:    4091        .@      LSLS     r1,r1,r2
        0x00001ccc:    4a01        .J      LDR      r2,[pc,#4] ; [0x1cd4] = 0xe000e180
        0x00001cce:    6011        .`      STR      r1,[r2,#0]
        0x00001cd0:    4770        pG      BX       lr
    $d
        0x00001cd2:    0000        ..      DCW    0
        0x00001cd4:    e000e180    ....    DCD    3758154112
    $t
    i.NVIC_EnableIRQ
    NVIC_EnableIRQ
        0x00001cd8:    06c2        ..      LSLS     r2,r0,#27
        0x00001cda:    0ed2        ..      LSRS     r2,r2,#27
        0x00001cdc:    2101        .!      MOVS     r1,#1
        0x00001cde:    4091        .@      LSLS     r1,r1,r2
        0x00001ce0:    4a01        .J      LDR      r2,[pc,#4] ; [0x1ce8] = 0xe000e100
        0x00001ce2:    6011        .`      STR      r1,[r2,#0]
        0x00001ce4:    4770        pG      BX       lr
    $d
        0x00001ce6:    0000        ..      DCW    0
        0x00001ce8:    e000e100    ....    DCD    3758153984
    $t
    i.NVIC_EnableIRQ
    NVIC_EnableIRQ
        0x00001cec:    06c2        ..      LSLS     r2,r0,#27
        0x00001cee:    0ed2        ..      LSRS     r2,r2,#27
        0x00001cf0:    2101        .!      MOVS     r1,#1
        0x00001cf2:    4091        .@      LSLS     r1,r1,r2
        0x00001cf4:    4a01        .J      LDR      r2,[pc,#4] ; [0x1cfc] = 0xe000e100
        0x00001cf6:    6011        .`      STR      r1,[r2,#0]
        0x00001cf8:    4770        pG      BX       lr
    $d
        0x00001cfa:    0000        ..      DCW    0
        0x00001cfc:    e000e100    ....    DCD    3758153984
    $t
    i.NVIC_SetPriority
    NVIC_SetPriority
        0x00001d00:    b510        ..      PUSH     {r4,lr}
        0x00001d02:    2800        .(      CMP      r0,#0
        0x00001d04:    da19        ..      BGE      0x1d3a ; NVIC_SetPriority + 58
        0x00001d06:    4a1a        .J      LDR      r2,[pc,#104] ; [0x1d70] = 0xe000ed1c
        0x00001d08:    0703        ..      LSLS     r3,r0,#28
        0x00001d0a:    0f1b        ..      LSRS     r3,r3,#28
        0x00001d0c:    3b08        .;      SUBS     r3,r3,#8
        0x00001d0e:    089b        ..      LSRS     r3,r3,#2
        0x00001d10:    009b        ..      LSLS     r3,r3,#2
        0x00001d12:    58d2        .X      LDR      r2,[r2,r3]
        0x00001d14:    0783        ..      LSLS     r3,r0,#30
        0x00001d16:    0edc        ..      LSRS     r4,r3,#27
        0x00001d18:    23ff        .#      MOVS     r3,#0xff
        0x00001d1a:    40a3        .@      LSLS     r3,r3,r4
        0x00001d1c:    439a        .C      BICS     r2,r2,r3
        0x00001d1e:    078b        ..      LSLS     r3,r1,#30
        0x00001d20:    0e1b        ..      LSRS     r3,r3,#24
        0x00001d22:    0784        ..      LSLS     r4,r0,#30
        0x00001d24:    0ee4        ..      LSRS     r4,r4,#27
        0x00001d26:    40a3        .@      LSLS     r3,r3,r4
        0x00001d28:    431a        .C      ORRS     r2,r2,r3
        0x00001d2a:    4b11        .K      LDR      r3,[pc,#68] ; [0x1d70] = 0xe000ed1c
        0x00001d2c:    0704        ..      LSLS     r4,r0,#28
        0x00001d2e:    0f24        $.      LSRS     r4,r4,#28
        0x00001d30:    3c08        .<      SUBS     r4,r4,#8
        0x00001d32:    08a4        ..      LSRS     r4,r4,#2
        0x00001d34:    00a4        ..      LSLS     r4,r4,#2
        0x00001d36:    511a        .Q      STR      r2,[r3,r4]
        0x00001d38:    e018        ..      B        0x1d6c ; NVIC_SetPriority + 108
        0x00001d3a:    4a0e        .J      LDR      r2,[pc,#56] ; [0x1d74] = 0xe000e100
        0x00001d3c:    2303        .#      MOVS     r3,#3
        0x00001d3e:    021b        ..      LSLS     r3,r3,#8
        0x00001d40:    18d2        ..      ADDS     r2,r2,r3
        0x00001d42:    0883        ..      LSRS     r3,r0,#2
        0x00001d44:    009b        ..      LSLS     r3,r3,#2
        0x00001d46:    58d2        .X      LDR      r2,[r2,r3]
        0x00001d48:    0783        ..      LSLS     r3,r0,#30
        0x00001d4a:    0edc        ..      LSRS     r4,r3,#27
        0x00001d4c:    23ff        .#      MOVS     r3,#0xff
        0x00001d4e:    40a3        .@      LSLS     r3,r3,r4
        0x00001d50:    439a        .C      BICS     r2,r2,r3
        0x00001d52:    078b        ..      LSLS     r3,r1,#30
        0x00001d54:    0e1b        ..      LSRS     r3,r3,#24
        0x00001d56:    0784        ..      LSLS     r4,r0,#30
        0x00001d58:    0ee4        ..      LSRS     r4,r4,#27
        0x00001d5a:    40a3        .@      LSLS     r3,r3,r4
        0x00001d5c:    431a        .C      ORRS     r2,r2,r3
        0x00001d5e:    4b05        .K      LDR      r3,[pc,#20] ; [0x1d74] = 0xe000e100
        0x00001d60:    2403        .$      MOVS     r4,#3
        0x00001d62:    0224        $.      LSLS     r4,r4,#8
        0x00001d64:    191b        ..      ADDS     r3,r3,r4
        0x00001d66:    0884        ..      LSRS     r4,r0,#2
        0x00001d68:    00a4        ..      LSLS     r4,r4,#2
        0x00001d6a:    511a        .Q      STR      r2,[r3,r4]
        0x00001d6c:    bd10        ..      POP      {r4,pc}
    $d
        0x00001d6e:    0000        ..      DCW    0
        0x00001d70:    e000ed1c    ....    DCD    3758157084
        0x00001d74:    e000e100    ....    DCD    3758153984
    $t
    i.NVIC_SetPriority
    NVIC_SetPriority
        0x00001d78:    b510        ..      PUSH     {r4,lr}
        0x00001d7a:    2800        .(      CMP      r0,#0
        0x00001d7c:    da19        ..      BGE      0x1db2 ; NVIC_SetPriority + 58
        0x00001d7e:    4a1a        .J      LDR      r2,[pc,#104] ; [0x1de8] = 0xe000ed1c
        0x00001d80:    0703        ..      LSLS     r3,r0,#28
        0x00001d82:    0f1b        ..      LSRS     r3,r3,#28
        0x00001d84:    3b08        .;      SUBS     r3,r3,#8
        0x00001d86:    089b        ..      LSRS     r3,r3,#2
        0x00001d88:    009b        ..      LSLS     r3,r3,#2
        0x00001d8a:    58d2        .X      LDR      r2,[r2,r3]
        0x00001d8c:    0783        ..      LSLS     r3,r0,#30
        0x00001d8e:    0edc        ..      LSRS     r4,r3,#27
        0x00001d90:    23ff        .#      MOVS     r3,#0xff
        0x00001d92:    40a3        .@      LSLS     r3,r3,r4
        0x00001d94:    439a        .C      BICS     r2,r2,r3
        0x00001d96:    078b        ..      LSLS     r3,r1,#30
        0x00001d98:    0e1b        ..      LSRS     r3,r3,#24
        0x00001d9a:    0784        ..      LSLS     r4,r0,#30
        0x00001d9c:    0ee4        ..      LSRS     r4,r4,#27
        0x00001d9e:    40a3        .@      LSLS     r3,r3,r4
        0x00001da0:    431a        .C      ORRS     r2,r2,r3
        0x00001da2:    4b11        .K      LDR      r3,[pc,#68] ; [0x1de8] = 0xe000ed1c
        0x00001da4:    0704        ..      LSLS     r4,r0,#28
        0x00001da6:    0f24        $.      LSRS     r4,r4,#28
        0x00001da8:    3c08        .<      SUBS     r4,r4,#8
        0x00001daa:    08a4        ..      LSRS     r4,r4,#2
        0x00001dac:    00a4        ..      LSLS     r4,r4,#2
        0x00001dae:    511a        .Q      STR      r2,[r3,r4]
        0x00001db0:    e018        ..      B        0x1de4 ; NVIC_SetPriority + 108
        0x00001db2:    4a0e        .J      LDR      r2,[pc,#56] ; [0x1dec] = 0xe000e100
        0x00001db4:    2303        .#      MOVS     r3,#3
        0x00001db6:    021b        ..      LSLS     r3,r3,#8
        0x00001db8:    18d2        ..      ADDS     r2,r2,r3
        0x00001dba:    0883        ..      LSRS     r3,r0,#2
        0x00001dbc:    009b        ..      LSLS     r3,r3,#2
        0x00001dbe:    58d2        .X      LDR      r2,[r2,r3]
        0x00001dc0:    0783        ..      LSLS     r3,r0,#30
        0x00001dc2:    0edc        ..      LSRS     r4,r3,#27
        0x00001dc4:    23ff        .#      MOVS     r3,#0xff
        0x00001dc6:    40a3        .@      LSLS     r3,r3,r4
        0x00001dc8:    439a        .C      BICS     r2,r2,r3
        0x00001dca:    078b        ..      LSLS     r3,r1,#30
        0x00001dcc:    0e1b        ..      LSRS     r3,r3,#24
        0x00001dce:    0784        ..      LSLS     r4,r0,#30
        0x00001dd0:    0ee4        ..      LSRS     r4,r4,#27
        0x00001dd2:    40a3        .@      LSLS     r3,r3,r4
        0x00001dd4:    431a        .C      ORRS     r2,r2,r3
        0x00001dd6:    4b05        .K      LDR      r3,[pc,#20] ; [0x1dec] = 0xe000e100
        0x00001dd8:    2403        .$      MOVS     r4,#3
        0x00001dda:    0224        $.      LSLS     r4,r4,#8
        0x00001ddc:    191b        ..      ADDS     r3,r3,r4
        0x00001dde:    0884        ..      LSRS     r4,r0,#2
        0x00001de0:    00a4        ..      LSLS     r4,r4,#2
        0x00001de2:    511a        .Q      STR      r2,[r3,r4]
        0x00001de4:    bd10        ..      POP      {r4,pc}
    $d
        0x00001de6:    0000        ..      DCW    0
        0x00001de8:    e000ed1c    ....    DCD    3758157084
        0x00001dec:    e000e100    ....    DCD    3758153984
    $t
    i.NVIC_SetPriority
    NVIC_SetPriority
        0x00001df0:    b510        ..      PUSH     {r4,lr}
        0x00001df2:    2800        .(      CMP      r0,#0
        0x00001df4:    da19        ..      BGE      0x1e2a ; NVIC_SetPriority + 58
        0x00001df6:    4a1a        .J      LDR      r2,[pc,#104] ; [0x1e60] = 0xe000ed1c
        0x00001df8:    0703        ..      LSLS     r3,r0,#28
        0x00001dfa:    0f1b        ..      LSRS     r3,r3,#28
        0x00001dfc:    3b08        .;      SUBS     r3,r3,#8
        0x00001dfe:    089b        ..      LSRS     r3,r3,#2
        0x00001e00:    009b        ..      LSLS     r3,r3,#2
        0x00001e02:    58d2        .X      LDR      r2,[r2,r3]
        0x00001e04:    0783        ..      LSLS     r3,r0,#30
        0x00001e06:    0edc        ..      LSRS     r4,r3,#27
        0x00001e08:    23ff        .#      MOVS     r3,#0xff
        0x00001e0a:    40a3        .@      LSLS     r3,r3,r4
        0x00001e0c:    439a        .C      BICS     r2,r2,r3
        0x00001e0e:    078b        ..      LSLS     r3,r1,#30
        0x00001e10:    0e1b        ..      LSRS     r3,r3,#24
        0x00001e12:    0784        ..      LSLS     r4,r0,#30
        0x00001e14:    0ee4        ..      LSRS     r4,r4,#27
        0x00001e16:    40a3        .@      LSLS     r3,r3,r4
        0x00001e18:    431a        .C      ORRS     r2,r2,r3
        0x00001e1a:    4b11        .K      LDR      r3,[pc,#68] ; [0x1e60] = 0xe000ed1c
        0x00001e1c:    0704        ..      LSLS     r4,r0,#28
        0x00001e1e:    0f24        $.      LSRS     r4,r4,#28
        0x00001e20:    3c08        .<      SUBS     r4,r4,#8
        0x00001e22:    08a4        ..      LSRS     r4,r4,#2
        0x00001e24:    00a4        ..      LSLS     r4,r4,#2
        0x00001e26:    511a        .Q      STR      r2,[r3,r4]
        0x00001e28:    e018        ..      B        0x1e5c ; NVIC_SetPriority + 108
        0x00001e2a:    4a0e        .J      LDR      r2,[pc,#56] ; [0x1e64] = 0xe000e100
        0x00001e2c:    2303        .#      MOVS     r3,#3
        0x00001e2e:    021b        ..      LSLS     r3,r3,#8
        0x00001e30:    18d2        ..      ADDS     r2,r2,r3
        0x00001e32:    0883        ..      LSRS     r3,r0,#2
        0x00001e34:    009b        ..      LSLS     r3,r3,#2
        0x00001e36:    58d2        .X      LDR      r2,[r2,r3]
        0x00001e38:    0783        ..      LSLS     r3,r0,#30
        0x00001e3a:    0edc        ..      LSRS     r4,r3,#27
        0x00001e3c:    23ff        .#      MOVS     r3,#0xff
        0x00001e3e:    40a3        .@      LSLS     r3,r3,r4
        0x00001e40:    439a        .C      BICS     r2,r2,r3
        0x00001e42:    078b        ..      LSLS     r3,r1,#30
        0x00001e44:    0e1b        ..      LSRS     r3,r3,#24
        0x00001e46:    0784        ..      LSLS     r4,r0,#30
        0x00001e48:    0ee4        ..      LSRS     r4,r4,#27
        0x00001e4a:    40a3        .@      LSLS     r3,r3,r4
        0x00001e4c:    431a        .C      ORRS     r2,r2,r3
        0x00001e4e:    4b05        .K      LDR      r3,[pc,#20] ; [0x1e64] = 0xe000e100
        0x00001e50:    2403        .$      MOVS     r4,#3
        0x00001e52:    0224        $.      LSLS     r4,r4,#8
        0x00001e54:    191b        ..      ADDS     r3,r3,r4
        0x00001e56:    0884        ..      LSRS     r4,r0,#2
        0x00001e58:    00a4        ..      LSLS     r4,r4,#2
        0x00001e5a:    511a        .Q      STR      r2,[r3,r4]
        0x00001e5c:    bd10        ..      POP      {r4,pc}
    $d
        0x00001e5e:    0000        ..      DCW    0
        0x00001e60:    e000ed1c    ....    DCD    3758157084
        0x00001e64:    e000e100    ....    DCD    3758153984
    $t
    i.SC2ComInit
    SC2ComInit
        0x00001e68:    b538        8.      PUSH     {r3-r5,lr}
        0x00001e6a:    4604        .F      MOV      r4,r0
        0x00001e6c:    481e        .H      LDR      r0,[pc,#120] ; [0x1ee8] = 0xb647fe02
        0x00001e6e:    f7fff971    ..q.    BL       CLK_EnableModuleClock ; 0x1154
        0x00001e72:    2200        ."      MOVS     r2,#0
        0x00001e74:    4611        .F      MOV      r1,r2
        0x00001e76:    481c        .H      LDR      r0,[pc,#112] ; [0x1ee8] = 0xb647fe02
        0x00001e78:    f7fffc0c    ....    BL       CLK_SetModuleClock ; 0x1694
        0x00001e7c:    2005        .       MOVS     r0,#5
        0x00001e7e:    0700        ..      LSLS     r0,r0,#28
        0x00001e80:    6b00        .k      LDR      r0,[r0,#0x30]
        0x00001e82:    2103        .!      MOVS     r1,#3
        0x00001e84:    0309        ..      LSLS     r1,r1,#12
        0x00001e86:    4388        .C      BICS     r0,r0,r1
        0x00001e88:    2105        .!      MOVS     r1,#5
        0x00001e8a:    0709        ..      LSLS     r1,r1,#28
        0x00001e8c:    6308        .c      STR      r0,[r1,#0x30]
        0x00001e8e:    4608        .F      MOV      r0,r1
        0x00001e90:    6b00        .k      LDR      r0,[r0,#0x30]
        0x00001e92:    2103        .!      MOVS     r1,#3
        0x00001e94:    0309        ..      LSLS     r1,r1,#12
        0x00001e96:    4308        .C      ORRS     r0,r0,r1
        0x00001e98:    2105        .!      MOVS     r1,#5
        0x00001e9a:    0709        ..      LSLS     r1,r1,#28
        0x00001e9c:    6308        .c      STR      r0,[r1,#0x30]
        0x00001e9e:    4813        .H      LDR      r0,[pc,#76] ; [0x1eec] = 0x50000040
        0x00001ea0:    6900        .i      LDR      r0,[r0,#0x10]
        0x00001ea2:    4913        .I      LDR      r1,[pc,#76] ; [0x1ef0] = 0xfffff7fb
        0x00001ea4:    4008        .@      ANDS     r0,r0,r1
        0x00001ea6:    4911        .I      LDR      r1,[pc,#68] ; [0x1eec] = 0x50000040
        0x00001ea8:    6108        .a      STR      r0,[r1,#0x10]
        0x00001eaa:    4608        .F      MOV      r0,r1
        0x00001eac:    6900        .i      LDR      r0,[r0,#0x10]
        0x00001eae:    6108        .a      STR      r0,[r1,#0x10]
        0x00001eb0:    4608        .F      MOV      r0,r1
        0x00001eb2:    6980        .i      LDR      r0,[r0,#0x18]
        0x00001eb4:    2160        `!      MOVS     r1,#0x60
        0x00001eb6:    4388        .C      BICS     r0,r0,r1
        0x00001eb8:    490c        .I      LDR      r1,[pc,#48] ; [0x1eec] = 0x50000040
        0x00001eba:    6188        .a      STR      r0,[r1,#0x18]
        0x00001ebc:    4608        .F      MOV      r0,r1
        0x00001ebe:    6980        .i      LDR      r0,[r0,#0x18]
        0x00001ec0:    2103        .!      MOVS     r1,#3
        0x00001ec2:    0289        ..      LSLS     r1,r1,#10
        0x00001ec4:    4308        .C      ORRS     r0,r0,r1
        0x00001ec6:    4909        .I      LDR      r1,[pc,#36] ; [0x1eec] = 0x50000040
        0x00001ec8:    6188        .a      STR      r0,[r1,#0x18]
        0x00001eca:    4621        !F      MOV      r1,r4
        0x00001ecc:    4809        .H      LDR      r0,[pc,#36] ; [0x1ef4] = 0x40198000
        0x00001ece:    f000f863    ..c.    BL       SCUART_Open ; 0x1f98
        0x00001ed2:    2001        .       MOVS     r0,#1
        0x00001ed4:    03c0        ..      LSLS     r0,r0,#15
        0x00001ed6:    2300        .#      MOVS     r3,#0
        0x00001ed8:    461a        .F      MOV      r2,r3
        0x00001eda:    4621        !F      MOV      r1,r4
        0x00001edc:    9000        ..      STR      r0,[sp,#0]
        0x00001ede:    4805        .H      LDR      r0,[pc,#20] ; [0x1ef4] = 0x40198000
        0x00001ee0:    f000f874    ..t.    BL       SCUART_SetLineConfig ; 0x1fcc
        0x00001ee4:    bd38        8.      POP      {r3-r5,pc}
    $d
        0x00001ee6:    0000        ..      DCW    0
        0x00001ee8:    b647fe02    ..G.    DCD    3058171394
        0x00001eec:    50000040    @..P    DCD    1342177344
        0x00001ef0:    fffff7fb    ....    DCD    4294965243
        0x00001ef4:    40198000    ...@    DCD    1075412992
    $t
    i.SC2SendRadarData
    SC2SendRadarData
        0x00001ef8:    b50e        ..      PUSH     {r1-r3,lr}
        0x00001efa:    a205        ..      ADR      r2,{pc}+0x16 ; 0x1f10
        0x00001efc:    ca07        ..      LDM      r2,{r0-r2}
        0x00001efe:    466b        kF      MOV      r3,sp
        0x00001f00:    c307        ..      STM      r3!,{r0-r2}
        0x00001f02:    220c        ."      MOVS     r2,#0xc
        0x00001f04:    4669        iF      MOV      r1,sp
        0x00001f06:    4805        .H      LDR      r0,[pc,#20] ; [0x1f1c] = 0x40198000
        0x00001f08:    f000f886    ....    BL       SCUART_Write ; 0x2018
        0x00001f0c:    bd0e        ..      POP      {r1-r3,pc}
    $d
        0x00001f0e:    0000        ..      DCW    0
        0x00001f10:    01000155    U...    DCD    16777557
        0x00001f14:    01000100    ....    DCD    16777472
        0x00001f18:    fffe0400    ....    DCD    4294837248
        0x00001f1c:    40198000    ...@    DCD    1075412992
    $t
    i.SCUART_GetClock
    SCUART_GetClock
        0x00001f20:    b5f8        ..      PUSH     {r3-r7,lr}
        0x00001f22:    4607        .F      MOV      r7,r0
        0x00001f24:    4816        .H      LDR      r0,[pc,#88] ; [0x1f80] = 0x40190000
        0x00001f26:    4287        .B      CMP      r7,r0
        0x00001f28:    d101        ..      BNE      0x1f2e ; SCUART_GetClock + 14
        0x00001f2a:    2400        .$      MOVS     r4,#0
        0x00001f2c:    e005        ..      B        0x1f3a ; SCUART_GetClock + 26
        0x00001f2e:    4815        .H      LDR      r0,[pc,#84] ; [0x1f84] = 0x40194000
        0x00001f30:    4287        .B      CMP      r7,r0
        0x00001f32:    d101        ..      BNE      0x1f38 ; SCUART_GetClock + 24
        0x00001f34:    2401        .$      MOVS     r4,#1
        0x00001f36:    e000        ..      B        0x1f3a ; SCUART_GetClock + 26
        0x00001f38:    2402        .$      MOVS     r4,#2
        0x00001f3a:    4813        .H      LDR      r0,[pc,#76] ; [0x1f88] = 0x50000200
        0x00001f3c:    6b40        @k      LDR      r0,[r0,#0x34]
        0x00001f3e:    0061        a.      LSLS     r1,r4,#1
        0x00001f40:    40c8        .@      LSRS     r0,r0,r1
        0x00001f42:    0786        ..      LSLS     r6,r0,#30
        0x00001f44:    0fb6        ..      LSRS     r6,r6,#30
        0x00001f46:    2e00        ..      CMP      r6,#0
        0x00001f48:    d101        ..      BNE      0x1f4e ; SCUART_GetClock + 46
        0x00001f4a:    4d10        .M      LDR      r5,[pc,#64] ; [0x1f8c] = 0xb71b00
        0x00001f4c:    e00b        ..      B        0x1f66 ; SCUART_GetClock + 70
        0x00001f4e:    2e01        ..      CMP      r6,#1
        0x00001f50:    d103        ..      BNE      0x1f5a ; SCUART_GetClock + 58
        0x00001f52:    f7fffaaf    ....    BL       CLK_GetPLLClockFreq ; 0x14b4
        0x00001f56:    4605        .F      MOV      r5,r0
        0x00001f58:    e005        ..      B        0x1f66 ; SCUART_GetClock + 70
        0x00001f5a:    2e02        ..      CMP      r6,#2
        0x00001f5c:    d102        ..      BNE      0x1f64 ; SCUART_GetClock + 68
        0x00001f5e:    480c        .H      LDR      r0,[pc,#48] ; [0x1f90] = 0x20000000
        0x00001f60:    6805        .h      LDR      r5,[r0,#0]
        0x00001f62:    e000        ..      B        0x1f66 ; SCUART_GetClock + 70
        0x00001f64:    4d0b        .M      LDR      r5,[pc,#44] ; [0x1f94] = 0x1518000
        0x00001f66:    4808        .H      LDR      r0,[pc,#32] ; [0x1f88] = 0x50000200
        0x00001f68:    6b80        .k      LDR      r0,[r0,#0x38]
        0x00001f6a:    00e2        ..      LSLS     r2,r4,#3
        0x00001f6c:    40d0        .@      LSRS     r0,r0,r2
        0x00001f6e:    b2c0        ..      UXTB     r0,r0
        0x00001f70:    1c41        A.      ADDS     r1,r0,#1
        0x00001f72:    4628        (F      MOV      r0,r5
        0x00001f74:    f7fef8e4    ....    BL       __aeabi_uidiv ; 0x140
        0x00001f78:    4605        .F      MOV      r5,r0
        0x00001f7a:    4628        (F      MOV      r0,r5
        0x00001f7c:    bdf8        ..      POP      {r3-r7,pc}
    $d
        0x00001f7e:    0000        ..      DCW    0
        0x00001f80:    40190000    ...@    DCD    1075380224
        0x00001f84:    40194000    .@.@    DCD    1075396608
        0x00001f88:    50000200    ...P    DCD    1342177792
        0x00001f8c:    00b71b00    ....    DCD    12000000
        0x00001f90:    20000000    ...     DCD    536870912
        0x00001f94:    01518000    ..Q.    DCD    22118400
    $t
    i.SCUART_Open
    SCUART_Open
        0x00001f98:    b5f8        ..      PUSH     {r3-r7,lr}
        0x00001f9a:    4604        .F      MOV      r4,r0
        0x00001f9c:    460d        .F      MOV      r5,r1
        0x00001f9e:    4620         F      MOV      r0,r4
        0x00001fa0:    f7ffffbe    ....    BL       SCUART_GetClock ; 0x1f20
        0x00001fa4:    4606        .F      MOV      r6,r0
        0x00001fa6:    0869        i.      LSRS     r1,r5,#1
        0x00001fa8:    1989        ..      ADDS     r1,r1,r6
        0x00001faa:    1e48        H.      SUBS     r0,r1,#1
        0x00001fac:    4629        )F      MOV      r1,r5
        0x00001fae:    f7fef8c7    ....    BL       __aeabi_uidiv ; 0x140
        0x00001fb2:    1e47        G.      SUBS     r7,r0,#1
        0x00001fb4:    4804        .H      LDR      r0,[pc,#16] ; [0x1fc8] = 0x8001
        0x00001fb6:    6060        ``      STR      r0,[r4,#4]
        0x00001fb8:    2041        A       MOVS     r0,#0x41
        0x00001fba:    6360        `c      STR      r0,[r4,#0x34]
        0x00001fbc:    6167        ga      STR      r7,[r4,#0x14]
        0x00001fbe:    1c79        y.      ADDS     r1,r7,#1
        0x00001fc0:    4630        0F      MOV      r0,r6
        0x00001fc2:    f7fef8bd    ....    BL       __aeabi_uidiv ; 0x140
        0x00001fc6:    bdf8        ..      POP      {r3-r7,pc}
    $d
        0x00001fc8:    00008001    ....    DCD    32769
    $t
    i.SCUART_SetLineConfig
    SCUART_SetLineConfig
        0x00001fcc:    b5ff        ..      PUSH     {r0-r7,lr}
        0x00001fce:    b081        ..      SUB      sp,sp,#4
        0x00001fd0:    4604        .F      MOV      r4,r0
        0x00001fd2:    460e        .F      MOV      r6,r1
        0x00001fd4:    4617        .F      MOV      r7,r2
        0x00001fd6:    4620         F      MOV      r0,r4
        0x00001fd8:    f7ffffa2    ....    BL       SCUART_GetClock ; 0x1f20
        0x00001fdc:    9000        ..      STR      r0,[sp,#0]
        0x00001fde:    2e00        ..      CMP      r6,#0
        0x00001fe0:    d103        ..      BNE      0x1fea ; SCUART_SetLineConfig + 30
        0x00001fe2:    6960        `i      LDR      r0,[r4,#0x14]
        0x00001fe4:    0505        ..      LSLS     r5,r0,#20
        0x00001fe6:    0d2d        -.      LSRS     r5,r5,#20
        0x00001fe8:    e008        ..      B        0x1ffc ; SCUART_SetLineConfig + 48
        0x00001fea:    0872        r.      LSRS     r2,r6,#1
        0x00001fec:    9900        ..      LDR      r1,[sp,#0]
        0x00001fee:    1851        Q.      ADDS     r1,r2,r1
        0x00001ff0:    1e48        H.      SUBS     r0,r1,#1
        0x00001ff2:    4631        1F      MOV      r1,r6
        0x00001ff4:    f7fef8a4    ....    BL       __aeabi_uidiv ; 0x140
        0x00001ff8:    1e45        E.      SUBS     r5,r0,#1
        0x00001ffa:    6165        ea      STR      r5,[r4,#0x14]
        0x00001ffc:    2101        .!      MOVS     r1,#1
        0x00001ffe:    980a        ..      LDR      r0,[sp,#0x28]
        0x00002000:    4308        .C      ORRS     r0,r0,r1
        0x00002002:    6060        ``      STR      r0,[r4,#4]
        0x00002004:    9804        ..      LDR      r0,[sp,#0x10]
        0x00002006:    4338        8C      ORRS     r0,r0,r7
        0x00002008:    4308        .C      ORRS     r0,r0,r1
        0x0000200a:    6360        `c      STR      r0,[r4,#0x34]
        0x0000200c:    1c69        i.      ADDS     r1,r5,#1
        0x0000200e:    9800        ..      LDR      r0,[sp,#0]
        0x00002010:    f7fef896    ....    BL       __aeabi_uidiv ; 0x140
        0x00002014:    b005        ..      ADD      sp,sp,#0x14
        0x00002016:    bdf0        ..      POP      {r4-r7,pc}
    i.SCUART_Write
    SCUART_Write
        0x00002018:    b530        0.      PUSH     {r4,r5,lr}
        0x0000201a:    460b        .F      MOV      r3,r1
        0x0000201c:    2100        .!      MOVS     r1,#0
        0x0000201e:    e009        ..      B        0x2034 ; SCUART_Write + 28
        0x00002020:    bf00        ..      NOP      
        0x00002022:    6a04        .j      LDR      r4,[r0,#0x20]
        0x00002024:    2501        .%      MOVS     r5,#1
        0x00002026:    02ad        ..      LSLS     r5,r5,#10
        0x00002028:    402c        ,@      ANDS     r4,r4,r5
        0x0000202a:    2c00        .,      CMP      r4,#0
        0x0000202c:    d1f9        ..      BNE      0x2022 ; SCUART_Write + 10
        0x0000202e:    5c5c        \\      LDRB     r4,[r3,r1]
        0x00002030:    6004        .`      STR      r4,[r0,#0]
        0x00002032:    1c49        I.      ADDS     r1,r1,#1
        0x00002034:    4291        .B      CMP      r1,r2
        0x00002036:    d1f3        ..      BNE      0x2020 ; SCUART_Write + 8
        0x00002038:    bd30        0.      POP      {r4,r5,pc}
        0x0000203a:    0000        ..      MOVS     r0,r0
    i.SYS_Init
    SYS_Init
        0x0000203c:    b510        ..      PUSH     {r4,lr}
        0x0000203e:    2004        .       MOVS     r0,#4
        0x00002040:    f7fff968    ..h.    BL       CLK_EnableXtalRC ; 0x1314
        0x00002044:    2010        .       MOVS     r0,#0x10
        0x00002046:    f7fffba9    ....    BL       CLK_WaitClockReady ; 0x179c
        0x0000204a:    2001        .       MOVS     r0,#1
        0x0000204c:    f7fff962    ..b.    BL       CLK_EnableXtalRC ; 0x1314
        0x00002050:    2001        .       MOVS     r0,#1
        0x00002052:    f7fffba3    ....    BL       CLK_WaitClockReady ; 0x179c
        0x00002056:    481f        .H      LDR      r0,[pc,#124] ; [0x20d4] = 0x44aa200
        0x00002058:    f7fffa6c    ..l.    BL       CLK_SetCoreClock ; 0x1534
        0x0000205c:    202b        +       MOVS     r0,#0x2b
        0x0000205e:    0640        @.      LSLS     r0,r0,#25
        0x00002060:    f7fff878    ..x.    BL       CLK_EnableModuleClock ; 0x1154
        0x00002064:    2200        ."      MOVS     r2,#0
        0x00002066:    2103        .!      MOVS     r1,#3
        0x00002068:    2008        .       MOVS     r0,#8
        0x0000206a:    f7fff85b    ..[.    BL       CLK_EnableCKO ; 0x1124
        0x0000206e:    481a        .H      LDR      r0,[pc,#104] ; [0x20d8] = 0x5623fe1c
        0x00002070:    f7fff870    ..p.    BL       CLK_EnableModuleClock ; 0x1154
        0x00002074:    223b        ;"      MOVS     r2,#0x3b
        0x00002076:    0452        R.      LSLS     r2,r2,#17
        0x00002078:    2100        .!      MOVS     r1,#0
        0x0000207a:    4817        .H      LDR      r0,[pc,#92] ; [0x20d8] = 0x5623fe1c
        0x0000207c:    f7fffb0a    ....    BL       CLK_SetModuleClock ; 0x1694
        0x00002080:    2001        .       MOVS     r0,#1
        0x00002082:    f7fff867    ..g.    BL       CLK_EnableModuleClock ; 0x1154
        0x00002086:    4815        .H      LDR      r0,[pc,#84] ; [0x20dc] = 0x20000004
        0x00002088:    217d        }!      MOVS     r1,#0x7d
        0x0000208a:    00c9        ..      LSLS     r1,r1,#3
        0x0000208c:    6804        .h      LDR      r4,[r0,#0]
        0x0000208e:    434c        LC      MULS     r4,r1,r4
        0x00002090:    4813        .H      LDR      r0,[pc,#76] ; [0x20e0] = 0xffffff
        0x00002092:    4284        .B      CMP      r4,r0
        0x00002094:    d900        ..      BLS      0x2098 ; SYS_Init + 92
        0x00002096:    e00e        ..      B        0x20b6 ; SYS_Init + 122
        0x00002098:    0220         .      LSLS     r0,r4,#8
        0x0000209a:    0a00        ..      LSRS     r0,r0,#8
        0x0000209c:    1e40        @.      SUBS     r0,r0,#1
        0x0000209e:    4911        .I      LDR      r1,[pc,#68] ; [0x20e4] = 0xe000e000
        0x000020a0:    6148        Ha      STR      r0,[r1,#0x14]
        0x000020a2:    2103        .!      MOVS     r1,#3
        0x000020a4:    1f08        ..      SUBS     r0,r1,#4
        0x000020a6:    f7fffe2b    ..+.    BL       NVIC_SetPriority ; 0x1d00
        0x000020aa:    2000        .       MOVS     r0,#0
        0x000020ac:    490d        .I      LDR      r1,[pc,#52] ; [0x20e4] = 0xe000e000
        0x000020ae:    6188        .a      STR      r0,[r1,#0x18]
        0x000020b0:    2007        .       MOVS     r0,#7
        0x000020b2:    6108        .a      STR      r0,[r1,#0x10]
        0x000020b4:    bf00        ..      NOP      
        0x000020b6:    2101        .!      MOVS     r1,#1
        0x000020b8:    1e88        ..      SUBS     r0,r1,#2
        0x000020ba:    f7fffe21    ..!.    BL       NVIC_SetPriority ; 0x1d00
        0x000020be:    2000        .       MOVS     r0,#0
        0x000020c0:    43c0        .C      MVNS     r0,r0
        0x000020c2:    06c2        ..      LSLS     r2,r0,#27
        0x000020c4:    0ed2        ..      LSRS     r2,r2,#27
        0x000020c6:    2101        .!      MOVS     r1,#1
        0x000020c8:    4091        .@      LSLS     r1,r1,r2
        0x000020ca:    4a07        .J      LDR      r2,[pc,#28] ; [0x20e8] = 0xe000e100
        0x000020cc:    6011        .`      STR      r1,[r2,#0]
        0x000020ce:    bf00        ..      NOP      
        0x000020d0:    bd10        ..      POP      {r4,pc}
    $d
        0x000020d2:    0000        ..      DCW    0
        0x000020d4:    044aa200    ..J.    DCD    72000000
        0x000020d8:    5623fe1c    ..#V    DCD    1445199388
        0x000020dc:    20000004    ...     DCD    536870916
        0x000020e0:    00ffffff    ....    DCD    16777215
        0x000020e4:    e000e000    ....    DCD    3758153728
        0x000020e8:    e000e100    ....    DCD    3758153984
    $t
    i.SYS_LockReg
    SYS_LockReg
        0x000020ec:    2000        .       MOVS     r0,#0
        0x000020ee:    4901        .I      LDR      r1,[pc,#4] ; [0x20f4] = 0x50000100
        0x000020f0:    6008        .`      STR      r0,[r1,#0]
        0x000020f2:    4770        pG      BX       lr
    $d
        0x000020f4:    50000100    ...P    DCD    1342177536
    $t
    i.SYS_ResetModule
    SYS_ResetModule
        0x000020f8:    0e01        ..      LSRS     r1,r0,#24
        0x000020fa:    2205        ."      MOVS     r2,#5
        0x000020fc:    0712        ..      LSLS     r2,r2,#28
        0x000020fe:    1889        ..      ADDS     r1,r1,r2
        0x00002100:    6889        .h      LDR      r1,[r1,#8]
        0x00002102:    2201        ."      MOVS     r2,#1
        0x00002104:    4082        .@      LSLS     r2,r2,r0
        0x00002106:    4311        .C      ORRS     r1,r1,r2
        0x00002108:    0e02        ..      LSRS     r2,r0,#24
        0x0000210a:    2305        .#      MOVS     r3,#5
        0x0000210c:    071b        ..      LSLS     r3,r3,#28
        0x0000210e:    18d2        ..      ADDS     r2,r2,r3
        0x00002110:    6091        .`      STR      r1,[r2,#8]
        0x00002112:    0e01        ..      LSRS     r1,r0,#24
        0x00002114:    461a        .F      MOV      r2,r3
        0x00002116:    1889        ..      ADDS     r1,r1,r2
        0x00002118:    688a        .h      LDR      r2,[r1,#8]
        0x0000211a:    2101        .!      MOVS     r1,#1
        0x0000211c:    4081        .@      LSLS     r1,r1,r0
        0x0000211e:    438a        .C      BICS     r2,r2,r1
        0x00002120:    0e01        ..      LSRS     r1,r0,#24
        0x00002122:    18c9        ..      ADDS     r1,r1,r3
        0x00002124:    608a        .`      STR      r2,[r1,#8]
        0x00002126:    4770        pG      BX       lr
    i.SYS_UnlockReg
    SYS_UnlockReg
        0x00002128:    e006        ..      B        0x2138 ; SYS_UnlockReg + 16
        0x0000212a:    2059        Y       MOVS     r0,#0x59
        0x0000212c:    4905        .I      LDR      r1,[pc,#20] ; [0x2144] = 0x50000100
        0x0000212e:    6008        .`      STR      r0,[r1,#0]
        0x00002130:    2016        .       MOVS     r0,#0x16
        0x00002132:    6008        .`      STR      r0,[r1,#0]
        0x00002134:    2088        .       MOVS     r0,#0x88
        0x00002136:    6008        .`      STR      r0,[r1,#0]
        0x00002138:    4802        .H      LDR      r0,[pc,#8] ; [0x2144] = 0x50000100
        0x0000213a:    6800        .h      LDR      r0,[r0,#0]
        0x0000213c:    2801        .(      CMP      r0,#1
        0x0000213e:    d1f4        ..      BNE      0x212a ; SYS_UnlockReg + 2
        0x00002140:    4770        pG      BX       lr
    $d
        0x00002142:    0000        ..      DCW    0
        0x00002144:    50000100    ...P    DCD    1342177536
    $t
    i.SendChar
    SendChar
        0x00002148:    b500        ..      PUSH     {lr}
        0x0000214a:    4603        .F      MOV      r3,r0
        0x0000214c:    4803        .H      LDR      r0,[pc,#12] ; [0x215c] = 0x200000b8
        0x0000214e:    7800        .x      LDRB     r0,[r0,#0]
        0x00002150:    2800        .(      CMP      r0,#0
        0x00002152:    d002        ..      BEQ      0x215a ; SendChar + 18
        0x00002154:    4618        .F      MOV      r0,r3
        0x00002156:    f000f803    ....    BL       SendChar_ToUART ; 0x2160
        0x0000215a:    bd00        ..      POP      {pc}
    $d
        0x0000215c:    200000b8    ...     DCD    536871096
    $t
    i.SendChar_ToUART
    SendChar_ToUART
        0x00002160:    bf00        ..      NOP      
        0x00002162:    490b        .I      LDR      r1,[pc,#44] ; [0x2190] = 0x40050000
        0x00002164:    6989        .i      LDR      r1,[r1,#0x18]
        0x00002166:    2201        ."      MOVS     r2,#1
        0x00002168:    05d2        ..      LSLS     r2,r2,#23
        0x0000216a:    4011        .@      ANDS     r1,r1,r2
        0x0000216c:    2900        .)      CMP      r1,#0
        0x0000216e:    d1f8        ..      BNE      0x2162 ; SendChar_ToUART + 2
        0x00002170:    4907        .I      LDR      r1,[pc,#28] ; [0x2190] = 0x40050000
        0x00002172:    6008        .`      STR      r0,[r1,#0]
        0x00002174:    280a        .(      CMP      r0,#0xa
        0x00002176:    d10a        ..      BNE      0x218e ; SendChar_ToUART + 46
        0x00002178:    bf00        ..      NOP      
        0x0000217a:    4905        .I      LDR      r1,[pc,#20] ; [0x2190] = 0x40050000
        0x0000217c:    6989        .i      LDR      r1,[r1,#0x18]
        0x0000217e:    2201        ."      MOVS     r2,#1
        0x00002180:    05d2        ..      LSLS     r2,r2,#23
        0x00002182:    4011        .@      ANDS     r1,r1,r2
        0x00002184:    2900        .)      CMP      r1,#0
        0x00002186:    d1f8        ..      BNE      0x217a ; SendChar_ToUART + 26
        0x00002188:    210d        .!      MOVS     r1,#0xd
        0x0000218a:    4a01        .J      LDR      r2,[pc,#4] ; [0x2190] = 0x40050000
        0x0000218c:    6011        .`      STR      r1,[r2,#0]
        0x0000218e:    4770        pG      BX       lr
    $d
        0x00002190:    40050000    ...@    DCD    1074069504
    $t
    i.SoftTimerAlloc
    SoftTimerAlloc
        0x00002194:    b510        ..      PUSH     {r4,lr}
        0x00002196:    20ff        .       MOVS     r0,#0xff
        0x00002198:    b672        r.      CPSID    i
        0x0000219a:    2100        .!      MOVS     r1,#0
        0x0000219c:    e00e        ..      B        0x21bc ; SoftTimerAlloc + 40
        0x0000219e:    2214        ."      MOVS     r2,#0x14
        0x000021a0:    434a        JC      MULS     r2,r1,r2
        0x000021a2:    4b09        .K      LDR      r3,[pc,#36] ; [0x21c8] = 0x200028f8
        0x000021a4:    5c9a        .\      LDRB     r2,[r3,r2]
        0x000021a6:    2a00        .*      CMP      r2,#0
        0x000021a8:    d106        ..      BNE      0x21b8 ; SoftTimerAlloc + 36
        0x000021aa:    4608        .F      MOV      r0,r1
        0x000021ac:    2301        .#      MOVS     r3,#1
        0x000021ae:    2214        ."      MOVS     r2,#0x14
        0x000021b0:    434a        JC      MULS     r2,r1,r2
        0x000021b2:    4c05        .L      LDR      r4,[pc,#20] ; [0x21c8] = 0x200028f8
        0x000021b4:    54a3        .T      STRB     r3,[r4,r2]
        0x000021b6:    e003        ..      B        0x21c0 ; SoftTimerAlloc + 44
        0x000021b8:    1c4a        J.      ADDS     r2,r1,#1
        0x000021ba:    b2d1        ..      UXTB     r1,r2
        0x000021bc:    2905        .)      CMP      r1,#5
        0x000021be:    dbee        ..      BLT      0x219e ; SoftTimerAlloc + 10
        0x000021c0:    bf00        ..      NOP      
        0x000021c2:    b662        b.      CPSIE    i
        0x000021c4:    bd10        ..      POP      {r4,pc}
    $d
        0x000021c6:    0000        ..      DCW    0
        0x000021c8:    200028f8    .(.     DCD    536881400
    $t
    i.SoftTimerInit
    SoftTimerInit
        0x000021cc:    2000        .       MOVS     r0,#0
        0x000021ce:    e01a        ..      B        0x2206 ; SoftTimerInit + 58
        0x000021d0:    2200        ."      MOVS     r2,#0
        0x000021d2:    2114        .!      MOVS     r1,#0x14
        0x000021d4:    4341        AC      MULS     r1,r0,r1
        0x000021d6:    4b0d        .K      LDR      r3,[pc,#52] ; [0x220c] = 0x200028f8
        0x000021d8:    545a        ZT      STRB     r2,[r3,r1]
        0x000021da:    2114        .!      MOVS     r1,#0x14
        0x000021dc:    4341        AC      MULS     r1,r0,r1
        0x000021de:    18c9        ..      ADDS     r1,r1,r3
        0x000021e0:    604a        J`      STR      r2,[r1,#4]
        0x000021e2:    2114        .!      MOVS     r1,#0x14
        0x000021e4:    4341        AC      MULS     r1,r0,r1
        0x000021e6:    18c9        ..      ADDS     r1,r1,r3
        0x000021e8:    608a        .`      STR      r2,[r1,#8]
        0x000021ea:    2114        .!      MOVS     r1,#0x14
        0x000021ec:    4341        AC      MULS     r1,r0,r1
        0x000021ee:    18c9        ..      ADDS     r1,r1,r3
        0x000021f0:    708a        .p      STRB     r2,[r1,#2]
        0x000021f2:    2114        .!      MOVS     r1,#0x14
        0x000021f4:    4341        AC      MULS     r1,r0,r1
        0x000021f6:    18c9        ..      ADDS     r1,r1,r3
        0x000021f8:    704a        Jp      STRB     r2,[r1,#1]
        0x000021fa:    2114        .!      MOVS     r1,#0x14
        0x000021fc:    4341        AC      MULS     r1,r0,r1
        0x000021fe:    18c9        ..      ADDS     r1,r1,r3
        0x00002200:    60ca        .`      STR      r2,[r1,#0xc]
        0x00002202:    1c41        A.      ADDS     r1,r0,#1
        0x00002204:    b2c8        ..      UXTB     r0,r1
        0x00002206:    2805        .(      CMP      r0,#5
        0x00002208:    dbe2        ..      BLT      0x21d0 ; SoftTimerInit + 4
        0x0000220a:    4770        pG      BX       lr
    $d
        0x0000220c:    200028f8    .(.     DCD    536881400
    $t
    i.SoftTimerStart
    SoftTimerStart
        0x00002210:    b5f8        ..      PUSH     {r3-r7,lr}
        0x00002212:    4604        .F      MOV      r4,r0
        0x00002214:    460d        .F      MOV      r5,r1
        0x00002216:    4616        .F      MOV      r6,r2
        0x00002218:    461f        .F      MOV      r7,r3
        0x0000221a:    2c05        .,      CMP      r4,#5
        0x0000221c:    db05        ..      BLT      0x222a ; SoftTimerStart + 26
        0x0000221e:    4622        "F      MOV      r2,r4
        0x00002220:    4919        .I      LDR      r1,[pc,#100] ; [0x2288] = 0x341d
        0x00002222:    a01a        ..      ADR      r0,{pc}+0x6a ; 0x228c
        0x00002224:    f000fb90    ....    BL       __0printf$8 ; 0x2948
        0x00002228:    bdf8        ..      POP      {r3-r7,pc}
        0x0000222a:    2014        .       MOVS     r0,#0x14
        0x0000222c:    4360        `C      MULS     r0,r4,r0
        0x0000222e:    491d        .I      LDR      r1,[pc,#116] ; [0x22a4] = 0x200028f8
        0x00002230:    1840        @.      ADDS     r0,r0,r1
        0x00002232:    68c0        .h      LDR      r0,[r0,#0xc]
        0x00002234:    2800        .(      CMP      r0,#0
        0x00002236:    d006        ..      BEQ      0x2246 ; SoftTimerStart + 54
        0x00002238:    2014        .       MOVS     r0,#0x14
        0x0000223a:    4360        `C      MULS     r0,r4,r0
        0x0000223c:    1840        @.      ADDS     r0,r0,r1
        0x0000223e:    6880        .h      LDR      r0,[r0,#8]
        0x00002240:    2800        .(      CMP      r0,#0
        0x00002242:    d000        ..      BEQ      0x2246 ; SoftTimerStart + 54
        0x00002244:    e7f0        ..      B        0x2228 ; SoftTimerStart + 24
        0x00002246:    b672        r.      CPSID    i
        0x00002248:    2014        .       MOVS     r0,#0x14
        0x0000224a:    4360        `C      MULS     r0,r4,r0
        0x0000224c:    4915        .I      LDR      r1,[pc,#84] ; [0x22a4] = 0x200028f8
        0x0000224e:    1840        @.      ADDS     r0,r0,r1
        0x00002250:    6045        E`      STR      r5,[r0,#4]
        0x00002252:    2014        .       MOVS     r0,#0x14
        0x00002254:    4360        `C      MULS     r0,r4,r0
        0x00002256:    1840        @.      ADDS     r0,r0,r1
        0x00002258:    6085        .`      STR      r5,[r0,#8]
        0x0000225a:    2100        .!      MOVS     r1,#0
        0x0000225c:    2014        .       MOVS     r0,#0x14
        0x0000225e:    4360        `C      MULS     r0,r4,r0
        0x00002260:    4a10        .J      LDR      r2,[pc,#64] ; [0x22a4] = 0x200028f8
        0x00002262:    1880        ..      ADDS     r0,r0,r2
        0x00002264:    7081        .p      STRB     r1,[r0,#2]
        0x00002266:    2014        .       MOVS     r0,#0x14
        0x00002268:    4360        `C      MULS     r0,r4,r0
        0x0000226a:    4611        .F      MOV      r1,r2
        0x0000226c:    1840        @.      ADDS     r0,r0,r1
        0x0000226e:    7046        Fp      STRB     r6,[r0,#1]
        0x00002270:    2014        .       MOVS     r0,#0x14
        0x00002272:    4360        `C      MULS     r0,r4,r0
        0x00002274:    1840        @.      ADDS     r0,r0,r1
        0x00002276:    60c7        .`      STR      r7,[r0,#0xc]
        0x00002278:    2114        .!      MOVS     r1,#0x14
        0x0000227a:    4361        aC      MULS     r1,r4,r1
        0x0000227c:    1889        ..      ADDS     r1,r1,r2
        0x0000227e:    9806        ..      LDR      r0,[sp,#0x18]
        0x00002280:    6108        .a      STR      r0,[r1,#0x10]
        0x00002282:    b662        b.      CPSIE    i
        0x00002284:    bf00        ..      NOP      
        0x00002286:    e7cf        ..      B        0x2228 ; SoftTimerStart + 24
    $d
        0x00002288:    0000341d    .4..    DCD    13341
        0x0000228c:    29287325    %s()    DCD    690516773
        0x00002290:    766e6920     inv    DCD    1986947360
        0x00002294:    64696c61    alid    DCD    1684630625
        0x00002298:    3d646920     id=    DCD    1029990688
        0x0000229c:    0a0d6425    %d..    DCD    168649765
        0x000022a0:    00000000    ....    DCD    0
        0x000022a4:    200028f8    .(.     DCD    536881400
    $t
    i.SysTick_Handler
    SysTick_Handler
        0x000022a8:    b570        p.      PUSH     {r4-r6,lr}
        0x000022aa:    4863        cH      LDR      r0,[pc,#396] ; [0x2438] = 0x20000044
        0x000022ac:    6800        .h      LDR      r0,[r0,#0]
        0x000022ae:    1c40        @.      ADDS     r0,r0,#1
        0x000022b0:    4961        aI      LDR      r1,[pc,#388] ; [0x2438] = 0x20000044
        0x000022b2:    6008        .`      STR      r0,[r1,#0]
        0x000022b4:    4861        aH      LDR      r0,[pc,#388] ; [0x243c] = 0x20000048
        0x000022b6:    6800        .h      LDR      r0,[r0,#0]
        0x000022b8:    2800        .(      CMP      r0,#0
        0x000022ba:    d009        ..      BEQ      0x22d0 ; SysTick_Handler + 40
        0x000022bc:    485f        _H      LDR      r0,[pc,#380] ; [0x243c] = 0x20000048
        0x000022be:    6800        .h      LDR      r0,[r0,#0]
        0x000022c0:    1e40        @.      SUBS     r0,r0,#1
        0x000022c2:    495e        ^I      LDR      r1,[pc,#376] ; [0x243c] = 0x20000048
        0x000022c4:    6008        .`      STR      r0,[r1,#0]
        0x000022c6:    2800        .(      CMP      r0,#0
        0x000022c8:    d102        ..      BNE      0x22d0 ; SysTick_Handler + 40
        0x000022ca:    2001        .       MOVS     r0,#1
        0x000022cc:    495c        \I      LDR      r1,[pc,#368] ; [0x2440] = 0x2000004c
        0x000022ce:    7008        .p      STRB     r0,[r1,#0]
        0x000022d0:    2400        .$      MOVS     r4,#0
        0x000022d2:    e01b        ..      B        0x230c ; SysTick_Handler + 100
        0x000022d4:    2014        .       MOVS     r0,#0x14
        0x000022d6:    4360        `C      MULS     r0,r4,r0
        0x000022d8:    495a        ZI      LDR      r1,[pc,#360] ; [0x2444] = 0x200028f8
        0x000022da:    1845        E.      ADDS     r5,r0,r1
        0x000022dc:    7828        (x      LDRB     r0,[r5,#0]
        0x000022de:    2800        .(      CMP      r0,#0
        0x000022e0:    d011        ..      BEQ      0x2306 ; SysTick_Handler + 94
        0x000022e2:    6868        hh      LDR      r0,[r5,#4]
        0x000022e4:    2800        .(      CMP      r0,#0
        0x000022e6:    d00e        ..      BEQ      0x2306 ; SysTick_Handler + 94
        0x000022e8:    6868        hh      LDR      r0,[r5,#4]
        0x000022ea:    1e40        @.      SUBS     r0,r0,#1
        0x000022ec:    6068        h`      STR      r0,[r5,#4]
        0x000022ee:    2800        .(      CMP      r0,#0
        0x000022f0:    d109        ..      BNE      0x2306 ; SysTick_Handler + 94
        0x000022f2:    2001        .       MOVS     r0,#1
        0x000022f4:    70a8        .p      STRB     r0,[r5,#2]
        0x000022f6:    68e9        .h      LDR      r1,[r5,#0xc]
        0x000022f8:    6928        (i      LDR      r0,[r5,#0x10]
        0x000022fa:    4788        .G      BLX      r1
        0x000022fc:    7868        hx      LDRB     r0,[r5,#1]
        0x000022fe:    2801        .(      CMP      r0,#1
        0x00002300:    d101        ..      BNE      0x2306 ; SysTick_Handler + 94
        0x00002302:    68a8        .h      LDR      r0,[r5,#8]
        0x00002304:    6068        h`      STR      r0,[r5,#4]
        0x00002306:    bf00        ..      NOP      
        0x00002308:    1c60        `.      ADDS     r0,r4,#1
        0x0000230a:    b2c4        ..      UXTB     r4,r0
        0x0000230c:    2c05        .,      CMP      r4,#5
        0x0000230e:    dbe1        ..      BLT      0x22d4 ; SysTick_Handler + 44
        0x00002310:    2400        .$      MOVS     r4,#0
        0x00002312:    e08c        ..      B        0x242e ; SysTick_Handler + 390
        0x00002314:    0120         .      LSLS     r0,r4,#4
        0x00002316:    494c        LI      LDR      r1,[pc,#304] ; [0x2448] = 0x20000058
        0x00002318:    1840        @.      ADDS     r0,r0,r1
        0x0000231a:    8980        ..      LDRH     r0,[r0,#0xc]
        0x0000231c:    2800        .(      CMP      r0,#0
        0x0000231e:    dd70        p.      BLE      0x2402 ; SysTick_Handler + 346
        0x00002320:    0120         .      LSLS     r0,r4,#4
        0x00002322:    1840        @.      ADDS     r0,r0,r1
        0x00002324:    89c0        ..      LDRH     r0,[r0,#0xe]
        0x00002326:    0121        !.      LSLS     r1,r4,#4
        0x00002328:    4a47        GJ      LDR      r2,[pc,#284] ; [0x2448] = 0x20000058
        0x0000232a:    1889        ..      ADDS     r1,r1,r2
        0x0000232c:    8909        ..      LDRH     r1,[r1,#8]
        0x0000232e:    4288        .B      CMP      r0,r1
        0x00002330:    da07        ..      BGE      0x2342 ; SysTick_Handler + 154
        0x00002332:    0120         .      LSLS     r0,r4,#4
        0x00002334:    4611        .F      MOV      r1,r2
        0x00002336:    1840        @.      ADDS     r0,r0,r1
        0x00002338:    8880        ..      LDRH     r0,[r0,#4]
        0x0000233a:    0121        !.      LSLS     r1,r4,#4
        0x0000233c:    5851        QX      LDR      r1,[r2,r1]
        0x0000233e:    6008        .`      STR      r0,[r1,#0]
        0x00002340:    e06a        j.      B        0x2418 ; SysTick_Handler + 368
        0x00002342:    0120         .      LSLS     r0,r4,#4
        0x00002344:    4940        @I      LDR      r1,[pc,#256] ; [0x2448] = 0x20000058
        0x00002346:    1840        @.      ADDS     r0,r0,r1
        0x00002348:    89c0        ..      LDRH     r0,[r0,#0xe]
        0x0000234a:    0121        !.      LSLS     r1,r4,#4
        0x0000234c:    4a3e        >J      LDR      r2,[pc,#248] ; [0x2448] = 0x20000058
        0x0000234e:    1889        ..      ADDS     r1,r1,r2
        0x00002350:    8949        I.      LDRH     r1,[r1,#0xa]
        0x00002352:    4288        .B      CMP      r0,r1
        0x00002354:    da0d        ..      BGE      0x2372 ; SysTick_Handler + 202
        0x00002356:    0120         .      LSLS     r0,r4,#4
        0x00002358:    4611        .F      MOV      r1,r2
        0x0000235a:    1840        @.      ADDS     r0,r0,r1
        0x0000235c:    8880        ..      LDRH     r0,[r0,#4]
        0x0000235e:    2800        .(      CMP      r0,#0
        0x00002360:    d101        ..      BNE      0x2366 ; SysTick_Handler + 190
        0x00002362:    2001        .       MOVS     r0,#1
        0x00002364:    e000        ..      B        0x2368 ; SysTick_Handler + 192
        0x00002366:    2000        .       MOVS     r0,#0
        0x00002368:    0121        !.      LSLS     r1,r4,#4
        0x0000236a:    4a37        7J      LDR      r2,[pc,#220] ; [0x2448] = 0x20000058
        0x0000236c:    5851        QX      LDR      r1,[r2,r1]
        0x0000236e:    6008        .`      STR      r0,[r1,#0]
        0x00002370:    e052        R.      B        0x2418 ; SysTick_Handler + 368
        0x00002372:    0120         .      LSLS     r0,r4,#4
        0x00002374:    4934        4I      LDR      r1,[pc,#208] ; [0x2448] = 0x20000058
        0x00002376:    1840        @.      ADDS     r0,r0,r1
        0x00002378:    8900        ..      LDRH     r0,[r0,#8]
        0x0000237a:    2800        .(      CMP      r0,#0
        0x0000237c:    d004        ..      BEQ      0x2388 ; SysTick_Handler + 224
        0x0000237e:    0120         .      LSLS     r0,r4,#4
        0x00002380:    1840        @.      ADDS     r0,r0,r1
        0x00002382:    8940        @.      LDRH     r0,[r0,#0xa]
        0x00002384:    2800        .(      CMP      r0,#0
        0x00002386:    d10d        ..      BNE      0x23a4 ; SysTick_Handler + 252
        0x00002388:    0120         .      LSLS     r0,r4,#4
        0x0000238a:    492f        /I      LDR      r1,[pc,#188] ; [0x2448] = 0x20000058
        0x0000238c:    1840        @.      ADDS     r0,r0,r1
        0x0000238e:    8880        ..      LDRH     r0,[r0,#4]
        0x00002390:    2800        .(      CMP      r0,#0
        0x00002392:    d101        ..      BNE      0x2398 ; SysTick_Handler + 240
        0x00002394:    2001        .       MOVS     r0,#1
        0x00002396:    e000        ..      B        0x239a ; SysTick_Handler + 242
        0x00002398:    2000        .       MOVS     r0,#0
        0x0000239a:    0121        !.      LSLS     r1,r4,#4
        0x0000239c:    4a2a        *J      LDR      r2,[pc,#168] ; [0x2448] = 0x20000058
        0x0000239e:    5851        QX      LDR      r1,[r2,r1]
        0x000023a0:    6008        .`      STR      r0,[r1,#0]
        0x000023a2:    e007        ..      B        0x23b4 ; SysTick_Handler + 268
        0x000023a4:    0120         .      LSLS     r0,r4,#4
        0x000023a6:    4928        (I      LDR      r1,[pc,#160] ; [0x2448] = 0x20000058
        0x000023a8:    1840        @.      ADDS     r0,r0,r1
        0x000023aa:    8880        ..      LDRH     r0,[r0,#4]
        0x000023ac:    0121        !.      LSLS     r1,r4,#4
        0x000023ae:    4a26        &J      LDR      r2,[pc,#152] ; [0x2448] = 0x20000058
        0x000023b0:    5851        QX      LDR      r1,[r2,r1]
        0x000023b2:    6008        .`      STR      r0,[r1,#0]
        0x000023b4:    0120         .      LSLS     r0,r4,#4
        0x000023b6:    4924        $I      LDR      r1,[pc,#144] ; [0x2448] = 0x20000058
        0x000023b8:    1840        @.      ADDS     r0,r0,r1
        0x000023ba:    8980        ..      LDRH     r0,[r0,#0xc]
        0x000023bc:    4923        #I      LDR      r1,[pc,#140] ; [0x244c] = 0xffff
        0x000023be:    4288        .B      CMP      r0,r1
        0x000023c0:    d025        %.      BEQ      0x240e ; SysTick_Handler + 358
        0x000023c2:    0120         .      LSLS     r0,r4,#4
        0x000023c4:    4920         I      LDR      r1,[pc,#128] ; [0x2448] = 0x20000058
        0x000023c6:    1840        @.      ADDS     r0,r0,r1
        0x000023c8:    8980        ..      LDRH     r0,[r0,#0xc]
        0x000023ca:    1e40        @.      SUBS     r0,r0,#1
        0x000023cc:    0121        !.      LSLS     r1,r4,#4
        0x000023ce:    4a1e        .J      LDR      r2,[pc,#120] ; [0x2448] = 0x20000058
        0x000023d0:    1889        ..      ADDS     r1,r1,r2
        0x000023d2:    8188        ..      STRH     r0,[r1,#0xc]
        0x000023d4:    0120         .      LSLS     r0,r4,#4
        0x000023d6:    4611        .F      MOV      r1,r2
        0x000023d8:    1840        @.      ADDS     r0,r0,r1
        0x000023da:    8980        ..      LDRH     r0,[r0,#0xc]
        0x000023dc:    2800        .(      CMP      r0,#0
        0x000023de:    d116        ..      BNE      0x240e ; SysTick_Handler + 358
        0x000023e0:    0120         .      LSLS     r0,r4,#4
        0x000023e2:    1840        @.      ADDS     r0,r0,r1
        0x000023e4:    88c0        ..      LDRH     r0,[r0,#6]
        0x000023e6:    2800        .(      CMP      r0,#0
        0x000023e8:    d003        ..      BEQ      0x23f2 ; SysTick_Handler + 330
        0x000023ea:    0120         .      LSLS     r0,r4,#4
        0x000023ec:    1840        @.      ADDS     r0,r0,r1
        0x000023ee:    8880        ..      LDRH     r0,[r0,#4]
        0x000023f0:    e009        ..      B        0x2406 ; SysTick_Handler + 350
        0x000023f2:    0120         .      LSLS     r0,r4,#4
        0x000023f4:    4914        .I      LDR      r1,[pc,#80] ; [0x2448] = 0x20000058
        0x000023f6:    1840        @.      ADDS     r0,r0,r1
        0x000023f8:    8880        ..      LDRH     r0,[r0,#4]
        0x000023fa:    2800        .(      CMP      r0,#0
        0x000023fc:    d102        ..      BNE      0x2404 ; SysTick_Handler + 348
        0x000023fe:    2001        .       MOVS     r0,#1
        0x00002400:    e001        ..      B        0x2406 ; SysTick_Handler + 350
        0x00002402:    e012        ..      B        0x242a ; SysTick_Handler + 386
        0x00002404:    2000        .       MOVS     r0,#0
        0x00002406:    0121        !.      LSLS     r1,r4,#4
        0x00002408:    4a0f        .J      LDR      r2,[pc,#60] ; [0x2448] = 0x20000058
        0x0000240a:    5851        QX      LDR      r1,[r2,r1]
        0x0000240c:    6008        .`      STR      r0,[r1,#0]
        0x0000240e:    2000        .       MOVS     r0,#0
        0x00002410:    0121        !.      LSLS     r1,r4,#4
        0x00002412:    4a0d        .J      LDR      r2,[pc,#52] ; [0x2448] = 0x20000058
        0x00002414:    1889        ..      ADDS     r1,r1,r2
        0x00002416:    81c8        ..      STRH     r0,[r1,#0xe]
        0x00002418:    0120         .      LSLS     r0,r4,#4
        0x0000241a:    490b        .I      LDR      r1,[pc,#44] ; [0x2448] = 0x20000058
        0x0000241c:    1840        @.      ADDS     r0,r0,r1
        0x0000241e:    89c0        ..      LDRH     r0,[r0,#0xe]
        0x00002420:    1c40        @.      ADDS     r0,r0,#1
        0x00002422:    0121        !.      LSLS     r1,r4,#4
        0x00002424:    4a08        .J      LDR      r2,[pc,#32] ; [0x2448] = 0x20000058
        0x00002426:    1889        ..      ADDS     r1,r1,r2
        0x00002428:    81c8        ..      STRH     r0,[r1,#0xe]
        0x0000242a:    1c60        `.      ADDS     r0,r4,#1
        0x0000242c:    b2c4        ..      UXTB     r4,r0
        0x0000242e:    2c02        .,      CMP      r4,#2
        0x00002430:    da00        ..      BGE      0x2434 ; SysTick_Handler + 396
        0x00002432:    e76f        o.      B        0x2314 ; SysTick_Handler + 108
        0x00002434:    bd70        p.      POP      {r4-r6,pc}
    $d
        0x00002436:    0000        ..      DCW    0
        0x00002438:    20000044    D..     DCD    536870980
        0x0000243c:    20000048    H..     DCD    536870984
        0x00002440:    2000004c    L..     DCD    536870988
        0x00002444:    200028f8    .(.     DCD    536881400
        0x00002448:    20000058    X..     DCD    536871000
        0x0000244c:    0000ffff    ....    DCD    65535
    $t
    i.SystemCoreClockUpdate
    SystemCoreClockUpdate
        0x00002450:    b570        p.      PUSH     {r4-r6,lr}
        0x00002452:    f7feff6f    ..o.    BL       CLK_GetPLLClockFreq ; 0x1334
        0x00002456:    4911        .I      LDR      r1,[pc,#68] ; [0x249c] = 0x20000008
        0x00002458:    6008        .`      STR      r0,[r1,#0]
        0x0000245a:    4811        .H      LDR      r0,[pc,#68] ; [0x24a0] = 0x50000200
        0x0000245c:    6900        .i      LDR      r0,[r0,#0x10]
        0x0000245e:    0745        E.      LSLS     r5,r0,#29
        0x00002460:    0f6d        m.      LSRS     r5,r5,#29
        0x00002462:    2d02        .-      CMP      r5,#2
        0x00002464:    d003        ..      BEQ      0x246e ; SystemCoreClockUpdate + 30
        0x00002466:    00a8        ..      LSLS     r0,r5,#2
        0x00002468:    490e        .I      LDR      r1,[pc,#56] ; [0x24a4] = 0x2000000c
        0x0000246a:    580c        .X      LDR      r4,[r1,r0]
        0x0000246c:    e001        ..      B        0x2472 ; SystemCoreClockUpdate + 34
        0x0000246e:    480b        .H      LDR      r0,[pc,#44] ; [0x249c] = 0x20000008
        0x00002470:    6804        .h      LDR      r4,[r0,#0]
        0x00002472:    480b        .H      LDR      r0,[pc,#44] ; [0x24a0] = 0x50000200
        0x00002474:    6980        .i      LDR      r0,[r0,#0x18]
        0x00002476:    0700        ..      LSLS     r0,r0,#28
        0x00002478:    0f00        ..      LSRS     r0,r0,#28
        0x0000247a:    1c46        F.      ADDS     r6,r0,#1
        0x0000247c:    4631        1F      MOV      r1,r6
        0x0000247e:    4620         F      MOV      r0,r4
        0x00002480:    f7fdfe5e    ..^.    BL       __aeabi_uidiv ; 0x140
        0x00002484:    4908        .I      LDR      r1,[pc,#32] ; [0x24a8] = 0x20000000
        0x00002486:    6008        .`      STR      r0,[r1,#0]
        0x00002488:    4908        .I      LDR      r1,[pc,#32] ; [0x24ac] = 0xf4240
        0x0000248a:    4807        .H      LDR      r0,[pc,#28] ; [0x24a8] = 0x20000000
        0x0000248c:    6800        .h      LDR      r0,[r0,#0]
        0x0000248e:    104a        J.      ASRS     r2,r1,#1
        0x00002490:    1880        ..      ADDS     r0,r0,r2
        0x00002492:    f7fdfe55    ..U.    BL       __aeabi_uidiv ; 0x140
        0x00002496:    4906        .I      LDR      r1,[pc,#24] ; [0x24b0] = 0x20000004
        0x00002498:    6008        .`      STR      r0,[r1,#0]
        0x0000249a:    bd70        p.      POP      {r4-r6,pc}
    $d
        0x0000249c:    20000008    ...     DCD    536870920
        0x000024a0:    50000200    ...P    DCD    1342177792
        0x000024a4:    2000000c    ...     DCD    536870924
        0x000024a8:    20000000    ...     DCD    536870912
        0x000024ac:    000f4240    @B..    DCD    1000000
        0x000024b0:    20000004    ...     DCD    536870916
    $t
    i.SystemInit
    SystemInit
        0x000024b4:    4770        pG      BX       lr
        0x000024b6:    0000        ..      MOVS     r0,r0
    i.TIMER_GetModuleClock
    TIMER_GetModuleClock
        0x000024b8:    b530        0.      PUSH     {r4,r5,lr}
        0x000024ba:    b089        ..      SUB      sp,sp,#0x24
        0x000024bc:    4605        .F      MOV      r5,r0
        0x000024be:    2220         "      MOVS     r2,#0x20
        0x000024c0:    4919        .I      LDR      r1,[pc,#100] ; [0x2528] = 0x3498
        0x000024c2:    a801        ..      ADD      r0,sp,#4
        0x000024c4:    f7fdfe96    ....    BL       __aeabi_memcpy ; 0x1f4
        0x000024c8:    4818        .H      LDR      r0,[pc,#96] ; [0x252c] = 0x40010000
        0x000024ca:    4285        .B      CMP      r5,r0
        0x000024cc:    d106        ..      BNE      0x24dc ; TIMER_GetModuleClock + 36
        0x000024ce:    4818        .H      LDR      r0,[pc,#96] ; [0x2530] = 0x50000200
        0x000024d0:    6940        @i      LDR      r0,[r0,#0x14]
        0x000024d2:    2107        .!      MOVS     r1,#7
        0x000024d4:    0209        ..      LSLS     r1,r1,#8
        0x000024d6:    4008        .@      ANDS     r0,r0,r1
        0x000024d8:    0a04        ..      LSRS     r4,r0,#8
        0x000024da:    e01a        ..      B        0x2512 ; TIMER_GetModuleClock + 90
        0x000024dc:    4813        .H      LDR      r0,[pc,#76] ; [0x252c] = 0x40010000
        0x000024de:    3020         0      ADDS     r0,r0,#0x20
        0x000024e0:    4285        .B      CMP      r5,r0
        0x000024e2:    d106        ..      BNE      0x24f2 ; TIMER_GetModuleClock + 58
        0x000024e4:    4812        .H      LDR      r0,[pc,#72] ; [0x2530] = 0x50000200
        0x000024e6:    6940        @i      LDR      r0,[r0,#0x14]
        0x000024e8:    2107        .!      MOVS     r1,#7
        0x000024ea:    0309        ..      LSLS     r1,r1,#12
        0x000024ec:    4008        .@      ANDS     r0,r0,r1
        0x000024ee:    0b04        ..      LSRS     r4,r0,#12
        0x000024f0:    e00f        ..      B        0x2512 ; TIMER_GetModuleClock + 90
        0x000024f2:    4810        .H      LDR      r0,[pc,#64] ; [0x2534] = 0x40110000
        0x000024f4:    4285        .B      CMP      r5,r0
        0x000024f6:    d106        ..      BNE      0x2506 ; TIMER_GetModuleClock + 78
        0x000024f8:    480d        .H      LDR      r0,[pc,#52] ; [0x2530] = 0x50000200
        0x000024fa:    6940        @i      LDR      r0,[r0,#0x14]
        0x000024fc:    2107        .!      MOVS     r1,#7
        0x000024fe:    0409        ..      LSLS     r1,r1,#16
        0x00002500:    4008        .@      ANDS     r0,r0,r1
        0x00002502:    0c04        ..      LSRS     r4,r0,#16
        0x00002504:    e005        ..      B        0x2512 ; TIMER_GetModuleClock + 90
        0x00002506:    480a        .H      LDR      r0,[pc,#40] ; [0x2530] = 0x50000200
        0x00002508:    6940        @i      LDR      r0,[r0,#0x14]
        0x0000250a:    2107        .!      MOVS     r1,#7
        0x0000250c:    0509        ..      LSLS     r1,r1,#20
        0x0000250e:    4008        .@      ANDS     r0,r0,r1
        0x00002510:    0d04        ..      LSRS     r4,r0,#20
        0x00002512:    2c02        .,      CMP      r4,#2
        0x00002514:    d103        ..      BNE      0x251e ; TIMER_GetModuleClock + 102
        0x00002516:    4808        .H      LDR      r0,[pc,#32] ; [0x2538] = 0x20000000
        0x00002518:    6800        .h      LDR      r0,[r0,#0]
        0x0000251a:    b009        ..      ADD      sp,sp,#0x24
        0x0000251c:    bd30        0.      POP      {r4,r5,pc}
        0x0000251e:    00a0        ..      LSLS     r0,r4,#2
        0x00002520:    a901        ..      ADD      r1,sp,#4
        0x00002522:    5808        .X      LDR      r0,[r1,r0]
        0x00002524:    e7f9        ..      B        0x251a ; TIMER_GetModuleClock + 98
    $d
        0x00002526:    0000        ..      DCW    0
        0x00002528:    00003498    .4..    DCD    13464
        0x0000252c:    40010000    ...@    DCD    1073807360
        0x00002530:    50000200    ...P    DCD    1342177792
        0x00002534:    40110000    ...@    DCD    1074855936
        0x00002538:    20000000    ...     DCD    536870912
    $t
    i.TIMER_Open
    TIMER_Open
        0x0000253c:    b5f7        ..      PUSH     {r0-r2,r4-r7,lr}
        0x0000253e:    b082        ..      SUB      sp,sp,#8
        0x00002540:    4606        .F      MOV      r6,r0
        0x00002542:    4617        .F      MOV      r7,r2
        0x00002544:    4630        0F      MOV      r0,r6
        0x00002546:    f7ffffb7    ....    BL       TIMER_GetModuleClock ; 0x24b8
        0x0000254a:    9001        ..      STR      r0,[sp,#4]
        0x0000254c:    2400        .$      MOVS     r4,#0
        0x0000254e:    2500        .%      MOVS     r5,#0
        0x00002550:    9801        ..      LDR      r0,[sp,#4]
        0x00002552:    0840        @.      LSRS     r0,r0,#1
        0x00002554:    42b8        .B      CMP      r0,r7
        0x00002556:    d201        ..      BCS      0x255c ; TIMER_Open + 32
        0x00002558:    2402        .$      MOVS     r4,#2
        0x0000255a:    e00c        ..      B        0x2576 ; TIMER_Open + 58
        0x0000255c:    4639        9F      MOV      r1,r7
        0x0000255e:    9801        ..      LDR      r0,[sp,#4]
        0x00002560:    f7fdfdee    ....    BL       __aeabi_uidiv ; 0x140
        0x00002564:    4604        .F      MOV      r4,r0
        0x00002566:    0e25        %.      LSRS     r5,r4,#24
        0x00002568:    2d00        .-      CMP      r5,#0
        0x0000256a:    d004        ..      BEQ      0x2576 ; TIMER_Open + 58
        0x0000256c:    1c69        i.      ADDS     r1,r5,#1
        0x0000256e:    4620         F      MOV      r0,r4
        0x00002570:    f7fdfde6    ....    BL       __aeabi_uidiv ; 0x140
        0x00002574:    4604        .F      MOV      r4,r0
        0x00002576:    9803        ..      LDR      r0,[sp,#0xc]
        0x00002578:    4328        (C      ORRS     r0,r0,r5
        0x0000257a:    6030        0`      STR      r0,[r6,#0]
        0x0000257c:    6074        t`      STR      r4,[r6,#4]
        0x0000257e:    1c68        h.      ADDS     r0,r5,#1
        0x00002580:    4360        `C      MULS     r0,r4,r0
        0x00002582:    4601        .F      MOV      r1,r0
        0x00002584:    9801        ..      LDR      r0,[sp,#4]
        0x00002586:    f7fdfddb    ....    BL       __aeabi_uidiv ; 0x140
        0x0000258a:    b005        ..      ADD      sp,sp,#0x14
        0x0000258c:    bdf0        ..      POP      {r4-r7,pc}
        0x0000258e:    0000        ..      MOVS     r0,r0
    i.TimersInit
    TimersInit
        0x00002590:    b510        ..      PUSH     {r4,lr}
        0x00002592:    f7fffe1b    ....    BL       SoftTimerInit ; 0x21cc
        0x00002596:    f7fffb7b    ..{.    BL       HardwareTimerInit ; 0x1c90
        0x0000259a:    f7fffdc5    ....    BL       SYS_UnlockReg ; 0x2128
        0x0000259e:    2005        .       MOVS     r0,#5
        0x000025a0:    0700        ..      LSLS     r0,r0,#28
        0x000025a2:    6b40        @k      LDR      r0,[r0,#0x34]
        0x000025a4:    21ff        .!      MOVS     r1,#0xff
        0x000025a6:    3101        .1      ADDS     r1,#1
        0x000025a8:    4388        .C      BICS     r0,r0,r1
        0x000025aa:    2105        .!      MOVS     r1,#5
        0x000025ac:    0709        ..      LSLS     r1,r1,#28
        0x000025ae:    6348        Hc      STR      r0,[r1,#0x34]
        0x000025b0:    4608        .F      MOV      r0,r1
        0x000025b2:    6b40        @k      LDR      r0,[r0,#0x34]
        0x000025b4:    21ff        .!      MOVS     r1,#0xff
        0x000025b6:    3101        .1      ADDS     r1,#1
        0x000025b8:    4308        .C      ORRS     r0,r0,r1
        0x000025ba:    2105        .!      MOVS     r1,#5
        0x000025bc:    0709        ..      LSLS     r1,r1,#28
        0x000025be:    6348        Hc      STR      r0,[r1,#0x34]
        0x000025c0:    480a        .H      LDR      r0,[pc,#40] ; [0x25ec] = 0x50000040
        0x000025c2:    6900        .i      LDR      r0,[r0,#0x10]
        0x000025c4:    2101        .!      MOVS     r1,#1
        0x000025c6:    0749        I.      LSLS     r1,r1,#29
        0x000025c8:    4388        .C      BICS     r0,r0,r1
        0x000025ca:    4908        .I      LDR      r1,[pc,#32] ; [0x25ec] = 0x50000040
        0x000025cc:    6108        .a      STR      r0,[r1,#0x10]
        0x000025ce:    4608        .F      MOV      r0,r1
        0x000025d0:    6900        .i      LDR      r0,[r0,#0x10]
        0x000025d2:    05c9        ..      LSLS     r1,r1,#23
        0x000025d4:    4308        .C      ORRS     r0,r0,r1
        0x000025d6:    4905        .I      LDR      r1,[pc,#20] ; [0x25ec] = 0x50000040
        0x000025d8:    6108        .a      STR      r0,[r1,#0x10]
        0x000025da:    2200        ."      MOVS     r2,#0
        0x000025dc:    2103        .!      MOVS     r1,#3
        0x000025de:    2008        .       MOVS     r0,#8
        0x000025e0:    f7fefda0    ....    BL       CLK_EnableCKO ; 0x1124
        0x000025e4:    f7fffd82    ....    BL       SYS_LockReg ; 0x20ec
        0x000025e8:    bd10        ..      POP      {r4,pc}
    $d
        0x000025ea:    0000        ..      DCW    0
        0x000025ec:    50000040    @..P    DCD    1342177344
    $t
    i.UART02_IRQHandler
    UART02_IRQHandler
        0x000025f0:    4802        .H      LDR      r0,[pc,#8] ; [0x25fc] = 0x40050000
        0x000025f2:    6840        @h      LDR      r0,[r0,#4]
        0x000025f4:    4801        .H      LDR      r0,[pc,#4] ; [0x25fc] = 0x40050000
        0x000025f6:    69c0        .i      LDR      r0,[r0,#0x1c]
        0x000025f8:    4770        pG      BX       lr
    $d
        0x000025fa:    0000        ..      DCW    0
        0x000025fc:    40050000    ...@    DCD    1074069504
    $t
    i.UART1_IRQHandler
    UART1_IRQHandler
        0x00002600:    b510        ..      PUSH     {r4,lr}
        0x00002602:    4806        .H      LDR      r0,[pc,#24] ; [0x261c] = 0x40150000
        0x00002604:    6840        @h      LDR      r0,[r0,#4]
        0x00002606:    4905        .I      LDR      r1,[pc,#20] ; [0x261c] = 0x40150000
        0x00002608:    69c9        .i      LDR      r1,[r1,#0x1c]
        0x0000260a:    4008        .@      ANDS     r0,r0,r1
        0x0000260c:    0780        ..      LSLS     r0,r0,#30
        0x0000260e:    0f80        ..      LSRS     r0,r0,#30
        0x00002610:    2800        .(      CMP      r0,#0
        0x00002612:    d002        ..      BEQ      0x261a ; UART1_IRQHandler + 26
        0x00002614:    4801        .H      LDR      r0,[pc,#4] ; [0x261c] = 0x40150000
        0x00002616:    f000f8d7    ....    BL       Uart1IrqHandler ; 0x27c8
        0x0000261a:    bd10        ..      POP      {r4,pc}
    $d
        0x0000261c:    40150000    ...@    DCD    1075118080
    $t
    i.UART_EnableInt
    UART_EnableInt
        0x00002620:    b570        p.      PUSH     {r4-r6,lr}
        0x00002622:    4604        .F      MOV      r4,r0
        0x00002624:    460d        .F      MOV      r5,r1
        0x00002626:    6860        `h      LDR      r0,[r4,#4]
        0x00002628:    4328        (C      ORRS     r0,r0,r5
        0x0000262a:    6060        ``      STR      r0,[r4,#4]
        0x0000262c:    4808        .H      LDR      r0,[pc,#32] ; [0x2650] = 0x40050000
        0x0000262e:    4284        .B      CMP      r4,r0
        0x00002630:    d103        ..      BNE      0x263a ; UART_EnableInt + 26
        0x00002632:    200c        .       MOVS     r0,#0xc
        0x00002634:    f7fffb5a    ..Z.    BL       NVIC_EnableIRQ ; 0x1cec
        0x00002638:    e009        ..      B        0x264e ; UART_EnableInt + 46
        0x0000263a:    4806        .H      LDR      r0,[pc,#24] ; [0x2654] = 0x40150000
        0x0000263c:    4284        .B      CMP      r4,r0
        0x0000263e:    d103        ..      BNE      0x2648 ; UART_EnableInt + 40
        0x00002640:    200d        .       MOVS     r0,#0xd
        0x00002642:    f7fffb53    ..S.    BL       NVIC_EnableIRQ ; 0x1cec
        0x00002646:    e002        ..      B        0x264e ; UART_EnableInt + 46
        0x00002648:    200c        .       MOVS     r0,#0xc
        0x0000264a:    f7fffb4f    ..O.    BL       NVIC_EnableIRQ ; 0x1cec
        0x0000264e:    bd70        p.      POP      {r4-r6,pc}
    $d
        0x00002650:    40050000    ...@    DCD    1074069504
        0x00002654:    40150000    ...@    DCD    1075118080
    $t
    i.UART_Open
    UART_Open
        0x00002658:    b5f0        ..      PUSH     {r4-r7,lr}
        0x0000265a:    b087        ..      SUB      sp,sp,#0x1c
        0x0000265c:    4604        .F      MOV      r4,r0
        0x0000265e:    460d        .F      MOV      r5,r1
        0x00002660:    4827        'H      LDR      r0,[pc,#156] ; [0x2700] = 0x34b8
        0x00002662:    4601        .F      MOV      r1,r0
        0x00002664:    c90e        ..      LDM      r1,{r1-r3}
        0x00002666:    68c0        .h      LDR      r0,[r0,#0xc]
        0x00002668:    ae03        ..      ADD      r6,sp,#0xc
        0x0000266a:    c60e        ..      STM      r6!,{r1-r3}
        0x0000266c:    9006        ..      STR      r0,[sp,#0x18]
        0x0000266e:    2000        .       MOVS     r0,#0
        0x00002670:    9002        ..      STR      r0,[sp,#8]
        0x00002672:    4824        $H      LDR      r0,[pc,#144] ; [0x2704] = 0x50000200
        0x00002674:    6940        @i      LDR      r0,[r0,#0x14]
        0x00002676:    2103        .!      MOVS     r1,#3
        0x00002678:    0609        ..      LSLS     r1,r1,#24
        0x0000267a:    4008        .@      ANDS     r0,r0,r1
        0x0000267c:    0e06        ..      LSRS     r6,r0,#24
        0x0000267e:    4821        !H      LDR      r0,[pc,#132] ; [0x2704] = 0x50000200
        0x00002680:    6980        .i      LDR      r0,[r0,#0x18]
        0x00002682:    210f        .!      MOVS     r1,#0xf
        0x00002684:    0209        ..      LSLS     r1,r1,#8
        0x00002686:    4008        .@      ANDS     r0,r0,r1
        0x00002688:    0a07        ..      LSRS     r7,r0,#8
        0x0000268a:    2000        .       MOVS     r0,#0
        0x0000268c:    6320         c      STR      r0,[r4,#0x30]
        0x0000268e:    2003        .       MOVS     r0,#3
        0x00002690:    60e0        .`      STR      r0,[r4,#0xc]
        0x00002692:    68a0        .h      LDR      r0,[r4,#8]
        0x00002694:    491c        .I      LDR      r1,[pc,#112] ; [0x2708] = 0xfff0ff0f
        0x00002696:    4008        .@      ANDS     r0,r0,r1
        0x00002698:    60a0        .`      STR      r0,[r4,#8]
        0x0000269a:    2e01        ..      CMP      r6,#1
        0x0000269c:    d104        ..      BNE      0x26a8 ; UART_Open + 80
        0x0000269e:    f7fefec9    ....    BL       CLK_GetPLLClockFreq ; 0x1434
        0x000026a2:    00b1        ..      LSLS     r1,r6,#2
        0x000026a4:    aa03        ..      ADD      r2,sp,#0xc
        0x000026a6:    5050        PP      STR      r0,[r2,r1]
        0x000026a8:    2d00        .-      CMP      r5,#0
        0x000026aa:    d026        &.      BEQ      0x26fa ; UART_Open + 162
        0x000026ac:    00b1        ..      LSLS     r1,r6,#2
        0x000026ae:    aa03        ..      ADD      r2,sp,#0xc
        0x000026b0:    5850        PX      LDR      r0,[r2,r1]
        0x000026b2:    1c79        y.      ADDS     r1,r7,#1
        0x000026b4:    f7fdfd44    ..D.    BL       __aeabi_uidiv ; 0x140
        0x000026b8:    0869        i.      LSRS     r1,r5,#1
        0x000026ba:    1840        @.      ADDS     r0,r0,r1
        0x000026bc:    4629        )F      MOV      r1,r5
        0x000026be:    9001        ..      STR      r0,[sp,#4]
        0x000026c0:    f7fdfd3e    ..>.    BL       __aeabi_uidiv ; 0x140
        0x000026c4:    1e80        ..      SUBS     r0,r0,#2
        0x000026c6:    9002        ..      STR      r0,[sp,#8]
        0x000026c8:    4910        .I      LDR      r1,[pc,#64] ; [0x270c] = 0xffff
        0x000026ca:    9802        ..      LDR      r0,[sp,#8]
        0x000026cc:    4288        .B      CMP      r0,r1
        0x000026ce:    d90f        ..      BLS      0x26f0 ; UART_Open + 152
        0x000026d0:    00b1        ..      LSLS     r1,r6,#2
        0x000026d2:    aa03        ..      ADD      r2,sp,#0xc
        0x000026d4:    5850        PX      LDR      r0,[r2,r1]
        0x000026d6:    1c79        y.      ADDS     r1,r7,#1
        0x000026d8:    f7fdfd32    ..2.    BL       __aeabi_uidiv ; 0x140
        0x000026dc:    00e9        ..      LSLS     r1,r5,#3
        0x000026de:    1840        @.      ADDS     r0,r0,r1
        0x000026e0:    4629        )F      MOV      r1,r5
        0x000026e2:    9001        ..      STR      r0,[sp,#4]
        0x000026e4:    f7fdfd2c    ..,.    BL       __aeabi_uidiv ; 0x140
        0x000026e8:    0900        ..      LSRS     r0,r0,#4
        0x000026ea:    1e80        ..      SUBS     r0,r0,#2
        0x000026ec:    6260        `b      STR      r0,[r4,#0x24]
        0x000026ee:    e004        ..      B        0x26fa ; UART_Open + 162
        0x000026f0:    2103        .!      MOVS     r1,#3
        0x000026f2:    0709        ..      LSLS     r1,r1,#28
        0x000026f4:    9802        ..      LDR      r0,[sp,#8]
        0x000026f6:    4308        .C      ORRS     r0,r0,r1
        0x000026f8:    6260        `b      STR      r0,[r4,#0x24]
        0x000026fa:    b007        ..      ADD      sp,sp,#0x1c
        0x000026fc:    bdf0        ..      POP      {r4-r7,pc}
    $d
        0x000026fe:    0000        ..      DCW    0
        0x00002700:    000034b8    .4..    DCD    13496
        0x00002704:    50000200    ...P    DCD    1342177792
        0x00002708:    fff0ff0f    ....    DCD    4293984015
        0x0000270c:    0000ffff    ....    DCD    65535
    $t
    i.UART_SetLine_Config
    UART_SetLine_Config
        0x00002710:    b5ff        ..      PUSH     {r0-r7,lr}
        0x00002712:    b087        ..      SUB      sp,sp,#0x1c
        0x00002714:    4604        .F      MOV      r4,r0
        0x00002716:    460d        .F      MOV      r5,r1
        0x00002718:    4617        .F      MOV      r7,r2
        0x0000271a:    4828        (H      LDR      r0,[pc,#160] ; [0x27bc] = 0x34c8
        0x0000271c:    4601        .F      MOV      r1,r0
        0x0000271e:    c90e        ..      LDM      r1,{r1-r3}
        0x00002720:    68c0        .h      LDR      r0,[r0,#0xc]
        0x00002722:    ae02        ..      ADD      r6,sp,#8
        0x00002724:    c60e        ..      STM      r6!,{r1-r3}
        0x00002726:    9005        ..      STR      r0,[sp,#0x14]
        0x00002728:    2000        .       MOVS     r0,#0
        0x0000272a:    9001        ..      STR      r0,[sp,#4]
        0x0000272c:    4824        $H      LDR      r0,[pc,#144] ; [0x27c0] = 0x50000200
        0x0000272e:    6940        @i      LDR      r0,[r0,#0x14]
        0x00002730:    2103        .!      MOVS     r1,#3
        0x00002732:    0609        ..      LSLS     r1,r1,#24
        0x00002734:    4008        .@      ANDS     r0,r0,r1
        0x00002736:    0e06        ..      LSRS     r6,r0,#24
        0x00002738:    4821        !H      LDR      r0,[pc,#132] ; [0x27c0] = 0x50000200
        0x0000273a:    6980        .i      LDR      r0,[r0,#0x18]
        0x0000273c:    210f        .!      MOVS     r1,#0xf
        0x0000273e:    0209        ..      LSLS     r1,r1,#8
        0x00002740:    4008        .@      ANDS     r0,r0,r1
        0x00002742:    0a00        ..      LSRS     r0,r0,#8
        0x00002744:    9006        ..      STR      r0,[sp,#0x18]
        0x00002746:    2e01        ..      CMP      r6,#1
        0x00002748:    d104        ..      BNE      0x2754 ; UART_SetLine_Config + 68
        0x0000274a:    f7fefe73    ..s.    BL       CLK_GetPLLClockFreq ; 0x1434
        0x0000274e:    00b1        ..      LSLS     r1,r6,#2
        0x00002750:    aa02        ..      ADD      r2,sp,#8
        0x00002752:    5050        PP      STR      r0,[r2,r1]
        0x00002754:    2d00        .-      CMP      r5,#0
        0x00002756:    d028        (.      BEQ      0x27aa ; UART_SetLine_Config + 154
        0x00002758:    00b1        ..      LSLS     r1,r6,#2
        0x0000275a:    aa02        ..      ADD      r2,sp,#8
        0x0000275c:    5850        PX      LDR      r0,[r2,r1]
        0x0000275e:    9906        ..      LDR      r1,[sp,#0x18]
        0x00002760:    1c49        I.      ADDS     r1,r1,#1
        0x00002762:    f7fdfced    ....    BL       __aeabi_uidiv ; 0x140
        0x00002766:    0869        i.      LSRS     r1,r5,#1
        0x00002768:    1840        @.      ADDS     r0,r0,r1
        0x0000276a:    4629        )F      MOV      r1,r5
        0x0000276c:    9000        ..      STR      r0,[sp,#0]
        0x0000276e:    f7fdfce7    ....    BL       __aeabi_uidiv ; 0x140
        0x00002772:    1e80        ..      SUBS     r0,r0,#2
        0x00002774:    9001        ..      STR      r0,[sp,#4]
        0x00002776:    4913        .I      LDR      r1,[pc,#76] ; [0x27c4] = 0xffff
        0x00002778:    9801        ..      LDR      r0,[sp,#4]
        0x0000277a:    4288        .B      CMP      r0,r1
        0x0000277c:    d910        ..      BLS      0x27a0 ; UART_SetLine_Config + 144
        0x0000277e:    00b1        ..      LSLS     r1,r6,#2
        0x00002780:    aa02        ..      ADD      r2,sp,#8
        0x00002782:    5850        PX      LDR      r0,[r2,r1]
        0x00002784:    9906        ..      LDR      r1,[sp,#0x18]
        0x00002786:    1c49        I.      ADDS     r1,r1,#1
        0x00002788:    f7fdfcda    ....    BL       __aeabi_uidiv ; 0x140
        0x0000278c:    00e9        ..      LSLS     r1,r5,#3
        0x0000278e:    1840        @.      ADDS     r0,r0,r1
        0x00002790:    4629        )F      MOV      r1,r5
        0x00002792:    9000        ..      STR      r0,[sp,#0]
        0x00002794:    f7fdfcd4    ....    BL       __aeabi_uidiv ; 0x140
        0x00002798:    0900        ..      LSRS     r0,r0,#4
        0x0000279a:    1e80        ..      SUBS     r0,r0,#2
        0x0000279c:    6260        `b      STR      r0,[r4,#0x24]
        0x0000279e:    e004        ..      B        0x27aa ; UART_SetLine_Config + 154
        0x000027a0:    2103        .!      MOVS     r1,#3
        0x000027a2:    0709        ..      LSLS     r1,r1,#28
        0x000027a4:    9801        ..      LDR      r0,[sp,#4]
        0x000027a6:    4308        .C      ORRS     r0,r0,r1
        0x000027a8:    6260        `b      STR      r0,[r4,#0x24]
        0x000027aa:    4638        8F      MOV      r0,r7
        0x000027ac:    990a        ..      LDR      r1,[sp,#0x28]
        0x000027ae:    4308        .C      ORRS     r0,r0,r1
        0x000027b0:    9910        ..      LDR      r1,[sp,#0x40]
        0x000027b2:    4308        .C      ORRS     r0,r0,r1
        0x000027b4:    60e0        .`      STR      r0,[r4,#0xc]
        0x000027b6:    b00b        ..      ADD      sp,sp,#0x2c
        0x000027b8:    bdf0        ..      POP      {r4-r7,pc}
    $d
        0x000027ba:    0000        ..      DCW    0
        0x000027bc:    000034c8    .4..    DCD    13512
        0x000027c0:    50000200    ...P    DCD    1342177792
        0x000027c4:    0000ffff    ....    DCD    65535
    $t
    i.Uart1IrqHandler
    Uart1IrqHandler
        0x000027c8:    b5f8        ..      PUSH     {r3-r7,lr}
        0x000027ca:    4607        .F      MOV      r7,r0
        0x000027cc:    4c47        GL      LDR      r4,[pc,#284] ; [0x28ec] = 0x200028d4
        0x000027ce:    e084        ..      B        0x28da ; Uart1IrqHandler + 274
        0x000027d0:    6838        8h      LDR      r0,[r7,#0]
        0x000027d2:    b2c5        ..      UXTB     r5,r0
        0x000027d4:    7ea0        .~      LDRB     r0,[r4,#0x1a]
        0x000027d6:    4068        h@      EORS     r0,r0,r5
        0x000027d8:    76a0        .v      STRB     r0,[r4,#0x1a]
        0x000027da:    8ae0        ..      LDRH     r0,[r4,#0x16]
        0x000027dc:    0003        ..      MOVS     r3,r0
        0x000027de:    f000f8df    ....    BL       __ARM_common_switch8 ; 0x29a0
    $d
        0x000027e2:    0405        ..      DCW    1029
        0x000027e4:    201f1e11    ...     DCD    538910225
        0x000027e8:    0056        V.      DCW    86
    $t
        0x000027ea:    2d51        Q-      CMP      r5,#0x51
        0x000027ec:    d106        ..      BNE      0x27fc ; Uart1IrqHandler + 52
        0x000027ee:    8ae1        ..      LDRH     r1,[r4,#0x16]
        0x000027f0:    1c48        H.      ADDS     r0,r1,#1
        0x000027f2:    82e0        ..      STRH     r0,[r4,#0x16]
        0x000027f4:    4620         F      MOV      r0,r4
        0x000027f6:    3010        .0      ADDS     r0,r0,#0x10
        0x000027f8:    5445        ET      STRB     r5,[r0,r1]
        0x000027fa:    e002        ..      B        0x2802 ; Uart1IrqHandler + 58
        0x000027fc:    2000        .       MOVS     r0,#0
        0x000027fe:    76a0        .v      STRB     r0,[r4,#0x1a]
        0x00002800:    82e0        ..      STRH     r0,[r4,#0x16]
        0x00002802:    e069        i.      B        0x28d8 ; Uart1IrqHandler + 272
        0x00002804:    2da5        .-      CMP      r5,#0xa5
        0x00002806:    d106        ..      BNE      0x2816 ; Uart1IrqHandler + 78
        0x00002808:    8ae1        ..      LDRH     r1,[r4,#0x16]
        0x0000280a:    1c48        H.      ADDS     r0,r1,#1
        0x0000280c:    82e0        ..      STRH     r0,[r4,#0x16]
        0x0000280e:    4620         F      MOV      r0,r4
        0x00002810:    3010        .0      ADDS     r0,r0,#0x10
        0x00002812:    5445        ET      STRB     r5,[r0,r1]
        0x00002814:    e002        ..      B        0x281c ; Uart1IrqHandler + 84
        0x00002816:    2000        .       MOVS     r0,#0
        0x00002818:    76a0        .v      STRB     r0,[r4,#0x1a]
        0x0000281a:    82e0        ..      STRH     r0,[r4,#0x16]
        0x0000281c:    e05c        \.      B        0x28d8 ; Uart1IrqHandler + 272
        0x0000281e:    bf00        ..      NOP      
        0x00002820:    bf00        ..      NOP      
        0x00002822:    8ae1        ..      LDRH     r1,[r4,#0x16]
        0x00002824:    1c48        H.      ADDS     r0,r1,#1
        0x00002826:    82e0        ..      STRH     r0,[r4,#0x16]
        0x00002828:    4620         F      MOV      r0,r4
        0x0000282a:    3010        .0      ADDS     r0,r0,#0x10
        0x0000282c:    5445        ET      STRB     r5,[r0,r1]
        0x0000282e:    8ae0        ..      LDRH     r0,[r4,#0x16]
        0x00002830:    2805        .(      CMP      r0,#5
        0x00002832:    d12b        +.      BNE      0x288c ; Uart1IrqHandler + 196
        0x00002834:    8ae0        ..      LDRH     r0,[r4,#0x16]
        0x00002836:    1e80        ..      SUBS     r0,r0,#2
        0x00002838:    4621        !F      MOV      r1,r4
        0x0000283a:    3110        .1      ADDS     r1,r1,#0x10
        0x0000283c:    5c08        .\      LDRB     r0,[r1,r0]
        0x0000283e:    0200        ..      LSLS     r0,r0,#8
        0x00002840:    8ae1        ..      LDRH     r1,[r4,#0x16]
        0x00002842:    1e49        I.      SUBS     r1,r1,#1
        0x00002844:    4622        "F      MOV      r2,r4
        0x00002846:    3210        .2      ADDS     r2,r2,#0x10
        0x00002848:    5c51        Q\      LDRB     r1,[r2,r1]
        0x0000284a:    4308        .C      ORRS     r0,r0,r1
        0x0000284c:    8320         .      STRH     r0,[r4,#0x18]
        0x0000284e:    8b20         .      LDRH     r0,[r4,#0x18]
        0x00002850:    21ff        .!      MOVS     r1,#0xff
        0x00002852:    3101        .1      ADDS     r1,#1
        0x00002854:    4288        .B      CMP      r0,r1
        0x00002856:    dd03        ..      BLE      0x2860 ; Uart1IrqHandler + 152
        0x00002858:    2000        .       MOVS     r0,#0
        0x0000285a:    82e0        ..      STRH     r0,[r4,#0x16]
        0x0000285c:    76a0        .v      STRB     r0,[r4,#0x1a]
        0x0000285e:    e015        ..      B        0x288c ; Uart1IrqHandler + 196
        0x00002860:    8b21        !.      LDRH     r1,[r4,#0x18]
        0x00002862:    1d08        ..      ADDS     r0,r1,#4
        0x00002864:    f000fc20    .. .    BL       malloc ; 0x30a8
        0x00002868:    4606        .F      MOV      r6,r0
        0x0000286a:    2e00        ..      CMP      r6,#0
        0x0000286c:    d104        ..      BNE      0x2878 ; Uart1IrqHandler + 176
        0x0000286e:    82e0        ..      STRH     r0,[r4,#0x16]
        0x00002870:    76a0        .v      STRB     r0,[r4,#0x1a]
        0x00002872:    60e0        .`      STR      r0,[r4,#0xc]
        0x00002874:    8320         .      STRH     r0,[r4,#0x18]
        0x00002876:    e009        ..      B        0x288c ; Uart1IrqHandler + 196
        0x00002878:    1d30        0.      ADDS     r0,r6,#4
        0x0000287a:    60e0        .`      STR      r0,[r4,#0xc]
        0x0000287c:    2000        .       MOVS     r0,#0
        0x0000287e:    6030        0`      STR      r0,[r6,#0]
        0x00002880:    8ae2        ..      LDRH     r2,[r4,#0x16]
        0x00002882:    4621        !F      MOV      r1,r4
        0x00002884:    3110        .1      ADDS     r1,r1,#0x10
        0x00002886:    68e0        .h      LDR      r0,[r4,#0xc]
        0x00002888:    f7fdfcb4    ....    BL       __aeabi_memcpy ; 0x1f4
        0x0000288c:    e024        $.      B        0x28d8 ; Uart1IrqHandler + 272
        0x0000288e:    68e0        .h      LDR      r0,[r4,#0xc]
        0x00002890:    2800        .(      CMP      r0,#0
        0x00002892:    d020         .      BEQ      0x28d6 ; Uart1IrqHandler + 270
        0x00002894:    8ae1        ..      LDRH     r1,[r4,#0x16]
        0x00002896:    1c48        H.      ADDS     r0,r1,#1
        0x00002898:    82e0        ..      STRH     r0,[r4,#0x16]
        0x0000289a:    68e0        .h      LDR      r0,[r4,#0xc]
        0x0000289c:    5445        ET      STRB     r5,[r0,r1]
        0x0000289e:    8ae0        ..      LDRH     r0,[r4,#0x16]
        0x000028a0:    8b21        !.      LDRH     r1,[r4,#0x18]
        0x000028a2:    4288        .B      CMP      r0,r1
        0x000028a4:    db17        ..      BLT      0x28d6 ; Uart1IrqHandler + 270
        0x000028a6:    7ea0        .~      LDRB     r0,[r4,#0x1a]
        0x000028a8:    2800        .(      CMP      r0,#0
        0x000028aa:    d106        ..      BNE      0x28ba ; Uart1IrqHandler + 242
        0x000028ac:    68e0        .h      LDR      r0,[r4,#0xc]
        0x000028ae:    1f06        ..      SUBS     r6,r0,#4
        0x000028b0:    4631        1F      MOV      r1,r6
        0x000028b2:    1d20         .      ADDS     r0,r4,#4
        0x000028b4:    f000fb38    ..8.    BL       list_insert_tail ; 0x2f28
        0x000028b8:    e008        ..      B        0x28cc ; Uart1IrqHandler + 260
        0x000028ba:    7ea0        .~      LDRB     r0,[r4,#0x1a]
        0x000028bc:    4068        h@      EORS     r0,r0,r5
        0x000028be:    4601        .F      MOV      r1,r0
        0x000028c0:    a00b        ..      ADR      r0,{pc}+0x30 ; 0x28f0
        0x000028c2:    f000f841    ..A.    BL       __0printf$8 ; 0x2948
        0x000028c6:    4630        0F      MOV      r0,r6
        0x000028c8:    f000fb04    ....    BL       free ; 0x2ed4
        0x000028cc:    2000        .       MOVS     r0,#0
        0x000028ce:    82e0        ..      STRH     r0,[r4,#0x16]
        0x000028d0:    76a0        .v      STRB     r0,[r4,#0x1a]
        0x000028d2:    60e0        .`      STR      r0,[r4,#0xc]
        0x000028d4:    8320         .      STRH     r0,[r4,#0x18]
        0x000028d6:    bf00        ..      NOP      
        0x000028d8:    bf00        ..      NOP      
        0x000028da:    69b8        .i      LDR      r0,[r7,#0x18]
        0x000028dc:    2101        .!      MOVS     r1,#1
        0x000028de:    0389        ..      LSLS     r1,r1,#14
        0x000028e0:    4008        .@      ANDS     r0,r0,r1
        0x000028e2:    2800        .(      CMP      r0,#0
        0x000028e4:    d100        ..      BNE      0x28e8 ; Uart1IrqHandler + 288
        0x000028e6:    e773        s.      B        0x27d0 ; Uart1IrqHandler + 8
        0x000028e8:    bdf8        ..      POP      {r3-r7,pc}
    $d
        0x000028ea:    0000        ..      DCW    0
        0x000028ec:    200028d4    .(.     DCD    536881364
        0x000028f0:    736b6863    chks    DCD    1936418915
        0x000028f4:    65206d75    um e    DCD    1696623989
        0x000028f8:    202c7272    rr,     DCD    539783794
        0x000028fc:    65707865    expe    DCD    1701869669
        0x00002900:    203a7463    ct:     DCD    540701795
        0x00002904:    30257830    0x%0    DCD    807761968
        0x00002908:    000a7832    2x..    DCD    686130
    $t
    i.WDT_Feed
    WDT_Feed
        0x0000290c:    b510        ..      PUSH     {r4,lr}
        0x0000290e:    f7fffc0b    ....    BL       SYS_UnlockReg ; 0x2128
        0x00002912:    4805        .H      LDR      r0,[pc,#20] ; [0x2928] = 0x40004000
        0x00002914:    6800        .h      LDR      r0,[r0,#0]
        0x00002916:    212c        ,!      MOVS     r1,#0x2c
        0x00002918:    4388        .C      BICS     r0,r0,r1
        0x0000291a:    2101        .!      MOVS     r1,#1
        0x0000291c:    4308        .C      ORRS     r0,r0,r1
        0x0000291e:    4902        .I      LDR      r1,[pc,#8] ; [0x2928] = 0x40004000
        0x00002920:    6008        .`      STR      r0,[r1,#0]
        0x00002922:    f7fffbe3    ....    BL       SYS_LockReg ; 0x20ec
        0x00002926:    bd10        ..      POP      {r4,pc}
    $d
        0x00002928:    40004000    .@.@    DCD    1073758208
    $t
    i.WDT_Open
    WDT_Open
        0x0000292c:    b530        0.      PUSH     {r4,r5,lr}
        0x0000292e:    4c05        .L      LDR      r4,[pc,#20] ; [0x2944] = 0x40004000
        0x00002930:    6061        a`      STR      r1,[r4,#4]
        0x00002932:    2480        .$      MOVS     r4,#0x80
        0x00002934:    4304        .C      ORRS     r4,r4,r0
        0x00002936:    0055        U.      LSLS     r5,r2,#1
        0x00002938:    432c        ,C      ORRS     r4,r4,r5
        0x0000293a:    011d        ..      LSLS     r5,r3,#4
        0x0000293c:    432c        ,C      ORRS     r4,r4,r5
        0x0000293e:    4d01        .M      LDR      r5,[pc,#4] ; [0x2944] = 0x40004000
        0x00002940:    602c        ,`      STR      r4,[r5,#0]
        0x00002942:    bd30        0.      POP      {r4,r5,pc}
    $d
        0x00002944:    40004000    .@.@    DCD    1073758208
    $t
    i.__0printf$8
    __0printf$8
    __1printf$8
    __2printf
        0x00002948:    b40f        ..      PUSH     {r0-r3}
        0x0000294a:    b510        ..      PUSH     {r4,lr}
        0x0000294c:    a903        ..      ADD      r1,sp,#0xc
        0x0000294e:    4b04        .K      LDR      r3,[pc,#16] ; [0x2960] = 0x2ec5
        0x00002950:    4a04        .J      LDR      r2,[pc,#16] ; [0x2964] = 0x200000b0
        0x00002952:    9802        ..      LDR      r0,[sp,#8]
        0x00002954:    f000f842    ..B.    BL       _printf_core ; 0x29dc
        0x00002958:    bc10        ..      POP      {r4}
        0x0000295a:    bc08        ..      POP      {r3}
        0x0000295c:    b004        ..      ADD      sp,sp,#0x10
        0x0000295e:    4718        .G      BX       r3
    $d
        0x00002960:    00002ec5    ....    DCD    11973
        0x00002964:    200000b0    ...     DCD    536871088
    $t
    i.__0snprintf$8
    __0snprintf$8
    __1snprintf$8
    __2snprintf
        0x00002968:    b40f        ..      PUSH     {r0-r3}
        0x0000296a:    b57c        |.      PUSH     {r2-r6,lr}
        0x0000296c:    000c        ..      MOVS     r4,r1
        0x0000296e:    ad09        ..      ADD      r5,sp,#0x24
        0x00002970:    d001        ..      BEQ      0x2976 ; __0snprintf$8 + 14
        0x00002972:    1e61        a.      SUBS     r1,r4,#1
        0x00002974:    e000        ..      B        0x2978 ; __0snprintf$8 + 16
        0x00002976:    2100        .!      MOVS     r1,#0
        0x00002978:    9101        ..      STR      r1,[sp,#4]
        0x0000297a:    9000        ..      STR      r0,[sp,#0]
        0x0000297c:    4b07        .K      LDR      r3,[pc,#28] ; [0x299c] = 0x2e51
        0x0000297e:    466a        jF      MOV      r2,sp
        0x00002980:    4629        )F      MOV      r1,r5
        0x00002982:    9808        ..      LDR      r0,[sp,#0x20]
        0x00002984:    f000f82a    ..*.    BL       _printf_core ; 0x29dc
        0x00002988:    2c00        .,      CMP      r4,#0
        0x0000298a:    d002        ..      BEQ      0x2992 ; __0snprintf$8 + 42
        0x0000298c:    9a00        ..      LDR      r2,[sp,#0]
        0x0000298e:    2100        .!      MOVS     r1,#0
        0x00002990:    7011        .p      STRB     r1,[r2,#0]
        0x00002992:    bc7c        |.      POP      {r2-r6}
        0x00002994:    bc08        ..      POP      {r3}
        0x00002996:    b004        ..      ADD      sp,sp,#0x10
        0x00002998:    4718        .G      BX       r3
    $d
        0x0000299a:    0000        ..      DCW    0
        0x0000299c:    00002e51    Q...    DCD    11857
    $t
    i.__ARM_common_switch8
    __ARM_common_switch8
        0x000029a0:    b430        0.      PUSH     {r4,r5}
        0x000029a2:    4674        tF      MOV      r4,lr
        0x000029a4:    1e64        d.      SUBS     r4,r4,#1
        0x000029a6:    7825        %x      LDRB     r5,[r4,#0]
        0x000029a8:    1c64        d.      ADDS     r4,r4,#1
        0x000029aa:    42ab        .B      CMP      r3,r5
        0x000029ac:    d304        ..      BCC      0x29b8 ; __ARM_common_switch8 + 24
        0x000029ae:    5d63        c]      LDRB     r3,[r4,r5]
        0x000029b0:    005b        [.      LSLS     r3,r3,#1
        0x000029b2:    18e3        ..      ADDS     r3,r4,r3
        0x000029b4:    bc30        0.      POP      {r4,r5}
        0x000029b6:    4718        .G      BX       r3
        0x000029b8:    461d        .F      MOV      r5,r3
        0x000029ba:    e7f8        ..      B        0x29ae ; __ARM_common_switch8 + 14
    i.__scatterload_copy
    __scatterload_copy
        0x000029bc:    e002        ..      B        0x29c4 ; __scatterload_copy + 8
        0x000029be:    c808        ..      LDM      r0!,{r3}
        0x000029c0:    1f12        ..      SUBS     r2,r2,#4
        0x000029c2:    c108        ..      STM      r1!,{r3}
        0x000029c4:    2a00        .*      CMP      r2,#0
        0x000029c6:    d1fa        ..      BNE      0x29be ; __scatterload_copy + 2
        0x000029c8:    4770        pG      BX       lr
    i.__scatterload_null
    __scatterload_null
        0x000029ca:    4770        pG      BX       lr
    i.__scatterload_zeroinit
    __scatterload_zeroinit
        0x000029cc:    2000        .       MOVS     r0,#0
        0x000029ce:    e001        ..      B        0x29d4 ; __scatterload_zeroinit + 8
        0x000029d0:    c101        ..      STM      r1!,{r0}
        0x000029d2:    1f12        ..      SUBS     r2,r2,#4
        0x000029d4:    2a00        .*      CMP      r2,#0
        0x000029d6:    d1fb        ..      BNE      0x29d0 ; __scatterload_zeroinit + 4
        0x000029d8:    4770        pG      BX       lr
        0x000029da:    0000        ..      MOVS     r0,r0
    i._printf_core
    _printf_core
        0x000029dc:    b5ff        ..      PUSH     {r0-r7,lr}
        0x000029de:    b091        ..      SUB      sp,sp,#0x44
        0x000029e0:    460f        .F      MOV      r7,r1
        0x000029e2:    4605        .F      MOV      r5,r0
        0x000029e4:    2600        .&      MOVS     r6,#0
        0x000029e6:    e006        ..      B        0x29f6 ; _printf_core + 26
        0x000029e8:    2825        %(      CMP      r0,#0x25
        0x000029ea:    d00a        ..      BEQ      0x2a02 ; _printf_core + 38
        0x000029ec:    9a14        ..      LDR      r2,[sp,#0x50]
        0x000029ee:    9913        ..      LDR      r1,[sp,#0x4c]
        0x000029f0:    4790        .G      BLX      r2
        0x000029f2:    1c6d        m.      ADDS     r5,r5,#1
        0x000029f4:    1c76        v.      ADDS     r6,r6,#1
        0x000029f6:    7828        (x      LDRB     r0,[r5,#0]
        0x000029f8:    2800        .(      CMP      r0,#0
        0x000029fa:    d1f5        ..      BNE      0x29e8 ; _printf_core + 12
        0x000029fc:    4630        0F      MOV      r0,r6
        0x000029fe:    b015        ..      ADD      sp,sp,#0x54
        0x00002a00:    bdf0        ..      POP      {r4-r7,pc}
        0x00002a02:    2400        .$      MOVS     r4,#0
        0x00002a04:    9400        ..      STR      r4,[sp,#0]
        0x00002a06:    2101        .!      MOVS     r1,#1
        0x00002a08:    4af3        .J      LDR      r2,[pc,#972] ; [0x2dd8] = 0x12809
        0x00002a0a:    9402        ..      STR      r4,[sp,#8]
        0x00002a0c:    e000        ..      B        0x2a10 ; _printf_core + 52
        0x00002a0e:    4304        .C      ORRS     r4,r4,r0
        0x00002a10:    1c6d        m.      ADDS     r5,r5,#1
        0x00002a12:    782b        +x      LDRB     r3,[r5,#0]
        0x00002a14:    4608        .F      MOV      r0,r1
        0x00002a16:    3b20         ;      SUBS     r3,r3,#0x20
        0x00002a18:    4098        .@      LSLS     r0,r0,r3
        0x00002a1a:    4210        .B      TST      r0,r2
        0x00002a1c:    d1f7        ..      BNE      0x2a0e ; _printf_core + 50
        0x00002a1e:    7828        (x      LDRB     r0,[r5,#0]
        0x00002a20:    282a        *(      CMP      r0,#0x2a
        0x00002a22:    d00e        ..      BEQ      0x2a42 ; _printf_core + 102
        0x00002a24:    2202        ."      MOVS     r2,#2
        0x00002a26:    7828        (x      LDRB     r0,[r5,#0]
        0x00002a28:    4601        .F      MOV      r1,r0
        0x00002a2a:    3930        09      SUBS     r1,r1,#0x30
        0x00002a2c:    2909        .)      CMP      r1,#9
        0x00002a2e:    d815        ..      BHI      0x2a5c ; _printf_core + 128
        0x00002a30:    9900        ..      LDR      r1,[sp,#0]
        0x00002a32:    230a        .#      MOVS     r3,#0xa
        0x00002a34:    4359        YC      MULS     r1,r3,r1
        0x00002a36:    3930        09      SUBS     r1,r1,#0x30
        0x00002a38:    1840        @.      ADDS     r0,r0,r1
        0x00002a3a:    4314        .C      ORRS     r4,r4,r2
        0x00002a3c:    1c6d        m.      ADDS     r5,r5,#1
        0x00002a3e:    9000        ..      STR      r0,[sp,#0]
        0x00002a40:    e7f1        ..      B        0x2a26 ; _printf_core + 74
        0x00002a42:    cf01        ..      LDM      r7!,{r0}
        0x00002a44:    9000        ..      STR      r0,[sp,#0]
        0x00002a46:    2800        .(      CMP      r0,#0
        0x00002a48:    da05        ..      BGE      0x2a56 ; _printf_core + 122
        0x00002a4a:    2001        .       MOVS     r0,#1
        0x00002a4c:    0340        @.      LSLS     r0,r0,#13
        0x00002a4e:    4304        .C      ORRS     r4,r4,r0
        0x00002a50:    9800        ..      LDR      r0,[sp,#0]
        0x00002a52:    4240        @B      RSBS     r0,r0,#0
        0x00002a54:    9000        ..      STR      r0,[sp,#0]
        0x00002a56:    2002        .       MOVS     r0,#2
        0x00002a58:    4304        .C      ORRS     r4,r4,r0
        0x00002a5a:    1c6d        m.      ADDS     r5,r5,#1
        0x00002a5c:    7828        (x      LDRB     r0,[r5,#0]
        0x00002a5e:    282e        .(      CMP      r0,#0x2e
        0x00002a60:    d115        ..      BNE      0x2a8e ; _printf_core + 178
        0x00002a62:    2004        .       MOVS     r0,#4
        0x00002a64:    4304        .C      ORRS     r4,r4,r0
        0x00002a66:    7868        hx      LDRB     r0,[r5,#1]
        0x00002a68:    1c6d        m.      ADDS     r5,r5,#1
        0x00002a6a:    282a        *(      CMP      r0,#0x2a
        0x00002a6c:    d10a        ..      BNE      0x2a84 ; _printf_core + 168
        0x00002a6e:    cf01        ..      LDM      r7!,{r0}
        0x00002a70:    1c6d        m.      ADDS     r5,r5,#1
        0x00002a72:    9002        ..      STR      r0,[sp,#8]
        0x00002a74:    e00b        ..      B        0x2a8e ; _printf_core + 178
        0x00002a76:    9902        ..      LDR      r1,[sp,#8]
        0x00002a78:    220a        ."      MOVS     r2,#0xa
        0x00002a7a:    4351        QC      MULS     r1,r2,r1
        0x00002a7c:    3930        09      SUBS     r1,r1,#0x30
        0x00002a7e:    1840        @.      ADDS     r0,r0,r1
        0x00002a80:    1c6d        m.      ADDS     r5,r5,#1
        0x00002a82:    9002        ..      STR      r0,[sp,#8]
        0x00002a84:    7828        (x      LDRB     r0,[r5,#0]
        0x00002a86:    4601        .F      MOV      r1,r0
        0x00002a88:    3930        09      SUBS     r1,r1,#0x30
        0x00002a8a:    2909        .)      CMP      r1,#9
        0x00002a8c:    d9f3        ..      BLS      0x2a76 ; _printf_core + 154
        0x00002a8e:    7828        (x      LDRB     r0,[r5,#0]
        0x00002a90:    286c        l(      CMP      r0,#0x6c
        0x00002a92:    d010        ..      BEQ      0x2ab6 ; _printf_core + 218
        0x00002a94:    dc06        ..      BGT      0x2aa4 ; _printf_core + 200
        0x00002a96:    284c        L(      CMP      r0,#0x4c
        0x00002a98:    d01a        ..      BEQ      0x2ad0 ; _printf_core + 244
        0x00002a9a:    2868        h(      CMP      r0,#0x68
        0x00002a9c:    d00e        ..      BEQ      0x2abc ; _printf_core + 224
        0x00002a9e:    286a        j(      CMP      r0,#0x6a
        0x00002aa0:    d117        ..      BNE      0x2ad2 ; _printf_core + 246
        0x00002aa2:    e004        ..      B        0x2aae ; _printf_core + 210
        0x00002aa4:    2874        t(      CMP      r0,#0x74
        0x00002aa6:    d013        ..      BEQ      0x2ad0 ; _printf_core + 244
        0x00002aa8:    287a        z(      CMP      r0,#0x7a
        0x00002aaa:    d112        ..      BNE      0x2ad2 ; _printf_core + 246
        0x00002aac:    e010        ..      B        0x2ad0 ; _printf_core + 244
        0x00002aae:    2001        .       MOVS     r0,#1
        0x00002ab0:    0540        @.      LSLS     r0,r0,#21
        0x00002ab2:    4304        .C      ORRS     r4,r4,r0
        0x00002ab4:    e00c        ..      B        0x2ad0 ; _printf_core + 244
        0x00002ab6:    2101        .!      MOVS     r1,#1
        0x00002ab8:    0509        ..      LSLS     r1,r1,#20
        0x00002aba:    e001        ..      B        0x2ac0 ; _printf_core + 228
        0x00002abc:    2103        .!      MOVS     r1,#3
        0x00002abe:    0509        ..      LSLS     r1,r1,#20
        0x00002ac0:    430c        .C      ORRS     r4,r4,r1
        0x00002ac2:    7869        ix      LDRB     r1,[r5,#1]
        0x00002ac4:    4281        .B      CMP      r1,r0
        0x00002ac6:    d103        ..      BNE      0x2ad0 ; _printf_core + 244
        0x00002ac8:    2001        .       MOVS     r0,#1
        0x00002aca:    0500        ..      LSLS     r0,r0,#20
        0x00002acc:    1824        $.      ADDS     r4,r4,r0
        0x00002ace:    1c6d        m.      ADDS     r5,r5,#1
        0x00002ad0:    1c6d        m.      ADDS     r5,r5,#1
        0x00002ad2:    7828        (x      LDRB     r0,[r5,#0]
        0x00002ad4:    286e        n(      CMP      r0,#0x6e
        0x00002ad6:    d01e        ..      BEQ      0x2b16 ; _printf_core + 314
        0x00002ad8:    dc0c        ..      BGT      0x2af4 ; _printf_core + 280
        0x00002ada:    2863        c(      CMP      r0,#0x63
        0x00002adc:    d031        1.      BEQ      0x2b42 ; _printf_core + 358
        0x00002ade:    dc04        ..      BGT      0x2aea ; _printf_core + 270
        0x00002ae0:    2800        .(      CMP      r0,#0
        0x00002ae2:    d08b        ..      BEQ      0x29fc ; _printf_core + 32
        0x00002ae4:    2858        X(      CMP      r0,#0x58
        0x00002ae6:    d111        ..      BNE      0x2b0c ; _printf_core + 304
        0x00002ae8:    e0b2        ..      B        0x2c50 ; _printf_core + 628
        0x00002aea:    2864        d(      CMP      r0,#0x64
        0x00002aec:    d07b        {.      BEQ      0x2be6 ; _printf_core + 522
        0x00002aee:    2869        i(      CMP      r0,#0x69
        0x00002af0:    d10c        ..      BNE      0x2b0c ; _printf_core + 304
        0x00002af2:    e078        x.      B        0x2be6 ; _printf_core + 522
        0x00002af4:    2873        s(      CMP      r0,#0x73
        0x00002af6:    d02d        -.      BEQ      0x2b54 ; _printf_core + 376
        0x00002af8:    dc04        ..      BGT      0x2b04 ; _printf_core + 296
        0x00002afa:    286f        o(      CMP      r0,#0x6f
        0x00002afc:    d070        p.      BEQ      0x2be0 ; _printf_core + 516
        0x00002afe:    2870        p(      CMP      r0,#0x70
        0x00002b00:    d104        ..      BNE      0x2b0c ; _printf_core + 304
        0x00002b02:    e0a7        ..      B        0x2c54 ; _printf_core + 632
        0x00002b04:    2875        u(      CMP      r0,#0x75
        0x00002b06:    d06c        l.      BEQ      0x2be2 ; _printf_core + 518
        0x00002b08:    2878        x(      CMP      r0,#0x78
        0x00002b0a:    d06b        k.      BEQ      0x2be4 ; _printf_core + 520
        0x00002b0c:    9a14        ..      LDR      r2,[sp,#0x50]
        0x00002b0e:    9913        ..      LDR      r1,[sp,#0x4c]
        0x00002b10:    4790        .G      BLX      r2
        0x00002b12:    1c76        v.      ADDS     r6,r6,#1
        0x00002b14:    e062        b.      B        0x2bdc ; _printf_core + 512
        0x00002b16:    0260        `.      LSLS     r0,r4,#9
        0x00002b18:    0f40        @.      LSRS     r0,r0,#29
        0x00002b1a:    2802        .(      CMP      r0,#2
        0x00002b1c:    d007        ..      BEQ      0x2b2e ; _printf_core + 338
        0x00002b1e:    2803        .(      CMP      r0,#3
        0x00002b20:    d00a        ..      BEQ      0x2b38 ; _printf_core + 348
        0x00002b22:    2804        .(      CMP      r0,#4
        0x00002b24:    6838        8h      LDR      r0,[r7,#0]
        0x00002b26:    d00a        ..      BEQ      0x2b3e ; _printf_core + 354
        0x00002b28:    6006        .`      STR      r6,[r0,#0]
        0x00002b2a:    1d3f        ?.      ADDS     r7,r7,#4
        0x00002b2c:    e056        V.      B        0x2bdc ; _printf_core + 512
        0x00002b2e:    6838        8h      LDR      r0,[r7,#0]
        0x00002b30:    17f1        ..      ASRS     r1,r6,#31
        0x00002b32:    6006        .`      STR      r6,[r0,#0]
        0x00002b34:    6041        A`      STR      r1,[r0,#4]
        0x00002b36:    e7f8        ..      B        0x2b2a ; _printf_core + 334
        0x00002b38:    6838        8h      LDR      r0,[r7,#0]
        0x00002b3a:    8006        ..      STRH     r6,[r0,#0]
        0x00002b3c:    e7f5        ..      B        0x2b2a ; _printf_core + 334
        0x00002b3e:    7006        .p      STRB     r6,[r0,#0]
        0x00002b40:    e7f3        ..      B        0x2b2a ; _printf_core + 334
        0x00002b42:    7838        8x      LDRB     r0,[r7,#0]
        0x00002b44:    4669        iF      MOV      r1,sp
        0x00002b46:    7408        .t      STRB     r0,[r1,#0x10]
        0x00002b48:    2000        .       MOVS     r0,#0
        0x00002b4a:    7448        Ht      STRB     r0,[r1,#0x11]
        0x00002b4c:    a804        ..      ADD      r0,sp,#0x10
        0x00002b4e:    9003        ..      STR      r0,[sp,#0xc]
        0x00002b50:    2001        .       MOVS     r0,#1
        0x00002b52:    e003        ..      B        0x2b5c ; _printf_core + 384
        0x00002b54:    6838        8h      LDR      r0,[r7,#0]
        0x00002b56:    9003        ..      STR      r0,[sp,#0xc]
        0x00002b58:    2000        .       MOVS     r0,#0
        0x00002b5a:    43c0        .C      MVNS     r0,r0
        0x00002b5c:    1d3f        ?.      ADDS     r7,r7,#4
        0x00002b5e:    0761        a.      LSLS     r1,r4,#29
        0x00002b60:    d50f        ..      BPL      0x2b82 ; _printf_core + 422
        0x00002b62:    2100        .!      MOVS     r1,#0
        0x00002b64:    e001        ..      B        0x2b6a ; _printf_core + 398
        0x00002b66:    9901        ..      LDR      r1,[sp,#4]
        0x00002b68:    1c49        I.      ADDS     r1,r1,#1
        0x00002b6a:    9a02        ..      LDR      r2,[sp,#8]
        0x00002b6c:    9101        ..      STR      r1,[sp,#4]
        0x00002b6e:    4291        .B      CMP      r1,r2
        0x00002b70:    da13        ..      BGE      0x2b9a ; _printf_core + 446
        0x00002b72:    4281        .B      CMP      r1,r0
        0x00002b74:    dbf7        ..      BLT      0x2b66 ; _printf_core + 394
        0x00002b76:    9a01        ..      LDR      r2,[sp,#4]
        0x00002b78:    9903        ..      LDR      r1,[sp,#0xc]
        0x00002b7a:    5c89        .\      LDRB     r1,[r1,r2]
        0x00002b7c:    2900        .)      CMP      r1,#0
        0x00002b7e:    d1f2        ..      BNE      0x2b66 ; _printf_core + 394
        0x00002b80:    e00b        ..      B        0x2b9a ; _printf_core + 446
        0x00002b82:    2100        .!      MOVS     r1,#0
        0x00002b84:    e001        ..      B        0x2b8a ; _printf_core + 430
        0x00002b86:    9901        ..      LDR      r1,[sp,#4]
        0x00002b88:    1c49        I.      ADDS     r1,r1,#1
        0x00002b8a:    9101        ..      STR      r1,[sp,#4]
        0x00002b8c:    4281        .B      CMP      r1,r0
        0x00002b8e:    dbfa        ..      BLT      0x2b86 ; _printf_core + 426
        0x00002b90:    9a01        ..      LDR      r2,[sp,#4]
        0x00002b92:    9903        ..      LDR      r1,[sp,#0xc]
        0x00002b94:    5c89        .\      LDRB     r1,[r1,r2]
        0x00002b96:    2900        .)      CMP      r1,#0
        0x00002b98:    d1f5        ..      BNE      0x2b86 ; _printf_core + 426
        0x00002b9a:    9901        ..      LDR      r1,[sp,#4]
        0x00002b9c:    9800        ..      LDR      r0,[sp,#0]
        0x00002b9e:    9a13        ..      LDR      r2,[sp,#0x4c]
        0x00002ba0:    1a40        @.      SUBS     r0,r0,r1
        0x00002ba2:    9000        ..      STR      r0,[sp,#0]
        0x00002ba4:    4621        !F      MOV      r1,r4
        0x00002ba6:    9b14        ..      LDR      r3,[sp,#0x50]
        0x00002ba8:    f000f93c    ..<.    BL       _printf_pre_padding ; 0x2e24
        0x00002bac:    9901        ..      LDR      r1,[sp,#4]
        0x00002bae:    1980        ..      ADDS     r0,r0,r6
        0x00002bb0:    1846        F.      ADDS     r6,r0,r1
        0x00002bb2:    e007        ..      B        0x2bc4 ; _printf_core + 488
        0x00002bb4:    9803        ..      LDR      r0,[sp,#0xc]
        0x00002bb6:    9903        ..      LDR      r1,[sp,#0xc]
        0x00002bb8:    7800        .x      LDRB     r0,[r0,#0]
        0x00002bba:    1c49        I.      ADDS     r1,r1,#1
        0x00002bbc:    9103        ..      STR      r1,[sp,#0xc]
        0x00002bbe:    9a14        ..      LDR      r2,[sp,#0x50]
        0x00002bc0:    9913        ..      LDR      r1,[sp,#0x4c]
        0x00002bc2:    4790        .G      BLX      r2
        0x00002bc4:    9801        ..      LDR      r0,[sp,#4]
        0x00002bc6:    1e40        @.      SUBS     r0,r0,#1
        0x00002bc8:    9001        ..      STR      r0,[sp,#4]
        0x00002bca:    1c40        @.      ADDS     r0,r0,#1
        0x00002bcc:    d1f2        ..      BNE      0x2bb4 ; _printf_core + 472
        0x00002bce:    4621        !F      MOV      r1,r4
        0x00002bd0:    9b14        ..      LDR      r3,[sp,#0x50]
        0x00002bd2:    9a13        ..      LDR      r2,[sp,#0x4c]
        0x00002bd4:    9800        ..      LDR      r0,[sp,#0]
        0x00002bd6:    f000f915    ....    BL       _printf_post_padding ; 0x2e04
        0x00002bda:    1986        ..      ADDS     r6,r0,r6
        0x00002bdc:    1c6d        m.      ADDS     r5,r5,#1
        0x00002bde:    e70a        ..      B        0x29f6 ; _printf_core + 26
        0x00002be0:    e041        A.      B        0x2c66 ; _printf_core + 650
        0x00002be2:    e033        3.      B        0x2c4c ; _printf_core + 624
        0x00002be4:    e034        4.      B        0x2c50 ; _printf_core + 628
        0x00002be6:    200a        .       MOVS     r0,#0xa
        0x00002be8:    2100        .!      MOVS     r1,#0
        0x00002bea:    9004        ..      STR      r0,[sp,#0x10]
        0x00002bec:    9105        ..      STR      r1,[sp,#0x14]
        0x00002bee:    0260        `.      LSLS     r0,r4,#9
        0x00002bf0:    0f41        A.      LSRS     r1,r0,#29
        0x00002bf2:    2902        .)      CMP      r1,#2
        0x00002bf4:    d005        ..      BEQ      0x2c02 ; _printf_core + 550
        0x00002bf6:    cf01        ..      LDM      r7!,{r0}
        0x00002bf8:    17c2        ..      ASRS     r2,r0,#31
        0x00002bfa:    4694        .F      MOV      r12,r2
        0x00002bfc:    2903        .)      CMP      r1,#3
        0x00002bfe:    d005        ..      BEQ      0x2c0c ; _printf_core + 560
        0x00002c00:    e007        ..      B        0x2c12 ; _printf_core + 566
        0x00002c02:    1dff        ..      ADDS     r7,r7,#7
        0x00002c04:    08ff        ..      LSRS     r7,r7,#3
        0x00002c06:    00ff        ..      LSLS     r7,r7,#3
        0x00002c08:    cf03        ..      LDM      r7!,{r0,r1}
        0x00002c0a:    e006        ..      B        0x2c1a ; _printf_core + 574
        0x00002c0c:    b200        ..      SXTH     r0,r0
        0x00002c0e:    17c2        ..      ASRS     r2,r0,#31
        0x00002c10:    4694        .F      MOV      r12,r2
        0x00002c12:    2904        .)      CMP      r1,#4
        0x00002c14:    d102        ..      BNE      0x2c1c ; _printf_core + 576
        0x00002c16:    b240        @.      SXTB     r0,r0
        0x00002c18:    17c1        ..      ASRS     r1,r0,#31
        0x00002c1a:    468c        .F      MOV      r12,r1
        0x00002c1c:    2200        ."      MOVS     r2,#0
        0x00002c1e:    4661        aF      MOV      r1,r12
        0x00002c20:    4594        .E      CMP      r12,r2
        0x00002c22:    da06        ..      BGE      0x2c32 ; _printf_core + 598
        0x00002c24:    460a        .F      MOV      r2,r1
        0x00002c26:    2100        .!      MOVS     r1,#0
        0x00002c28:    4240        @B      RSBS     r0,r0,#0
        0x00002c2a:    4191        .A      SBCS     r1,r1,r2
        0x00002c2c:    468c        .F      MOV      r12,r1
        0x00002c2e:    212d        -!      MOVS     r1,#0x2d
        0x00002c30:    e002        ..      B        0x2c38 ; _printf_core + 604
        0x00002c32:    0521        !.      LSLS     r1,r4,#20
        0x00002c34:    d504        ..      BPL      0x2c40 ; _printf_core + 612
        0x00002c36:    212b        +!      MOVS     r1,#0x2b
        0x00002c38:    466a        jF      MOV      r2,sp
        0x00002c3a:    7611        .v      STRB     r1,[r2,#0x18]
        0x00002c3c:    2101        .!      MOVS     r1,#1
        0x00002c3e:    e003        ..      B        0x2c48 ; _printf_core + 620
        0x00002c40:    07e1        ..      LSLS     r1,r4,#31
        0x00002c42:    d001        ..      BEQ      0x2c48 ; _printf_core + 620
        0x00002c44:    2120         !      MOVS     r1,#0x20
        0x00002c46:    e7f7        ..      B        0x2c38 ; _printf_core + 604
        0x00002c48:    9101        ..      STR      r1,[sp,#4]
        0x00002c4a:    e055        U.      B        0x2cf8 ; _printf_core + 796
        0x00002c4c:    200a        .       MOVS     r0,#0xa
        0x00002c4e:    e00b        ..      B        0x2c68 ; _printf_core + 652
        0x00002c50:    2010        .       MOVS     r0,#0x10
        0x00002c52:    e009        ..      B        0x2c68 ; _printf_core + 652
        0x00002c54:    2010        .       MOVS     r0,#0x10
        0x00002c56:    9004        ..      STR      r0,[sp,#0x10]
        0x00002c58:    2100        .!      MOVS     r1,#0
        0x00002c5a:    2004        .       MOVS     r0,#4
        0x00002c5c:    4304        .C      ORRS     r4,r4,r0
        0x00002c5e:    2008        .       MOVS     r0,#8
        0x00002c60:    9105        ..      STR      r1,[sp,#0x14]
        0x00002c62:    9002        ..      STR      r0,[sp,#8]
        0x00002c64:    e003        ..      B        0x2c6e ; _printf_core + 658
        0x00002c66:    2008        .       MOVS     r0,#8
        0x00002c68:    2100        .!      MOVS     r1,#0
        0x00002c6a:    9105        ..      STR      r1,[sp,#0x14]
        0x00002c6c:    9004        ..      STR      r0,[sp,#0x10]
        0x00002c6e:    0260        `.      LSLS     r0,r4,#9
        0x00002c70:    0f41        A.      LSRS     r1,r0,#29
        0x00002c72:    2902        .)      CMP      r1,#2
        0x00002c74:    d005        ..      BEQ      0x2c82 ; _printf_core + 678
        0x00002c76:    cf01        ..      LDM      r7!,{r0}
        0x00002c78:    2200        ."      MOVS     r2,#0
        0x00002c7a:    4694        .F      MOV      r12,r2
        0x00002c7c:    2903        .)      CMP      r1,#3
        0x00002c7e:    d006        ..      BEQ      0x2c8e ; _printf_core + 690
        0x00002c80:    e006        ..      B        0x2c90 ; _printf_core + 692
        0x00002c82:    1dff        ..      ADDS     r7,r7,#7
        0x00002c84:    08ff        ..      LSRS     r7,r7,#3
        0x00002c86:    00ff        ..      LSLS     r7,r7,#3
        0x00002c88:    cf03        ..      LDM      r7!,{r0,r1}
        0x00002c8a:    468c        .F      MOV      r12,r1
        0x00002c8c:    e003        ..      B        0x2c96 ; _printf_core + 698
        0x00002c8e:    b280        ..      UXTH     r0,r0
        0x00002c90:    2904        .)      CMP      r1,#4
        0x00002c92:    d100        ..      BNE      0x2c96 ; _printf_core + 698
        0x00002c94:    b2c0        ..      UXTB     r0,r0
        0x00002c96:    2100        .!      MOVS     r1,#0
        0x00002c98:    9101        ..      STR      r1,[sp,#4]
        0x00002c9a:    0721        !.      LSLS     r1,r4,#28
        0x00002c9c:    d52c        ,.      BPL      0x2cf8 ; _printf_core + 796
        0x00002c9e:    7829        )x      LDRB     r1,[r5,#0]
        0x00002ca0:    9103        ..      STR      r1,[sp,#0xc]
        0x00002ca2:    2970        p)      CMP      r1,#0x70
        0x00002ca4:    d006        ..      BEQ      0x2cb4 ; _printf_core + 728
        0x00002ca6:    9a04        ..      LDR      r2,[sp,#0x10]
        0x00002ca8:    2110        .!      MOVS     r1,#0x10
        0x00002caa:    9b05        ..      LDR      r3,[sp,#0x14]
        0x00002cac:    404a        J@      EORS     r2,r2,r1
        0x00002cae:    431a        .C      ORRS     r2,r2,r3
        0x00002cb0:    d005        ..      BEQ      0x2cbe ; _printf_core + 738
        0x00002cb2:    e00e        ..      B        0x2cd2 ; _printf_core + 758
        0x00002cb4:    2140        @!      MOVS     r1,#0x40
        0x00002cb6:    466a        jF      MOV      r2,sp
        0x00002cb8:    7611        .v      STRB     r1,[r2,#0x18]
        0x00002cba:    2101        .!      MOVS     r1,#1
        0x00002cbc:    e008        ..      B        0x2cd0 ; _printf_core + 756
        0x00002cbe:    4661        aF      MOV      r1,r12
        0x00002cc0:    4301        .C      ORRS     r1,r1,r0
        0x00002cc2:    d006        ..      BEQ      0x2cd2 ; _printf_core + 758
        0x00002cc4:    2130        0!      MOVS     r1,#0x30
        0x00002cc6:    466a        jF      MOV      r2,sp
        0x00002cc8:    7611        .v      STRB     r1,[r2,#0x18]
        0x00002cca:    9903        ..      LDR      r1,[sp,#0xc]
        0x00002ccc:    7651        Qv      STRB     r1,[r2,#0x19]
        0x00002cce:    2102        .!      MOVS     r1,#2
        0x00002cd0:    9101        ..      STR      r1,[sp,#4]
        0x00002cd2:    9a04        ..      LDR      r2,[sp,#0x10]
        0x00002cd4:    2108        .!      MOVS     r1,#8
        0x00002cd6:    9b05        ..      LDR      r3,[sp,#0x14]
        0x00002cd8:    404a        J@      EORS     r2,r2,r1
        0x00002cda:    431a        .C      ORRS     r2,r2,r3
        0x00002cdc:    d10c        ..      BNE      0x2cf8 ; _printf_core + 796
        0x00002cde:    4661        aF      MOV      r1,r12
        0x00002ce0:    4301        .C      ORRS     r1,r1,r0
        0x00002ce2:    d101        ..      BNE      0x2ce8 ; _printf_core + 780
        0x00002ce4:    0761        a.      LSLS     r1,r4,#29
        0x00002ce6:    d507        ..      BPL      0x2cf8 ; _printf_core + 796
        0x00002ce8:    2130        0!      MOVS     r1,#0x30
        0x00002cea:    466a        jF      MOV      r2,sp
        0x00002cec:    7611        .v      STRB     r1,[r2,#0x18]
        0x00002cee:    2101        .!      MOVS     r1,#1
        0x00002cf0:    9101        ..      STR      r1,[sp,#4]
        0x00002cf2:    9902        ..      LDR      r1,[sp,#8]
        0x00002cf4:    1e49        I.      SUBS     r1,r1,#1
        0x00002cf6:    9102        ..      STR      r1,[sp,#8]
        0x00002cf8:    7829        )x      LDRB     r1,[r5,#0]
        0x00002cfa:    2958        X)      CMP      r1,#0x58
        0x00002cfc:    d004        ..      BEQ      0x2d08 ; _printf_core + 812
        0x00002cfe:    a137        7.      ADR      r1,{pc}+0xde ; 0x2ddc
        0x00002d00:    9103        ..      STR      r1,[sp,#0xc]
        0x00002d02:    a90f        ..      ADD      r1,sp,#0x3c
        0x00002d04:    910f        ..      STR      r1,[sp,#0x3c]
        0x00002d06:    e00d        ..      B        0x2d24 ; _printf_core + 840
        0x00002d08:    a139        9.      ADR      r1,{pc}+0xe8 ; 0x2df0
        0x00002d0a:    e7f9        ..      B        0x2d00 ; _printf_core + 804
        0x00002d0c:    4661        aF      MOV      r1,r12
        0x00002d0e:    9b05        ..      LDR      r3,[sp,#0x14]
        0x00002d10:    9a04        ..      LDR      r2,[sp,#0x10]
        0x00002d12:    f7fdfa3f    ..?.    BL       __aeabi_uldivmod ; 0x194
        0x00002d16:    9b03        ..      LDR      r3,[sp,#0xc]
        0x00002d18:    468c        .F      MOV      r12,r1
        0x00002d1a:    5c9b        .\      LDRB     r3,[r3,r2]
        0x00002d1c:    9a0f        ..      LDR      r2,[sp,#0x3c]
        0x00002d1e:    1e52        R.      SUBS     r2,r2,#1
        0x00002d20:    920f        ..      STR      r2,[sp,#0x3c]
        0x00002d22:    7013        .p      STRB     r3,[r2,#0]
        0x00002d24:    4661        aF      MOV      r1,r12
        0x00002d26:    4301        .C      ORRS     r1,r1,r0
        0x00002d28:    d1f0        ..      BNE      0x2d0c ; _printf_core + 816
        0x00002d2a:    980f        ..      LDR      r0,[sp,#0x3c]
        0x00002d2c:    a907        ..      ADD      r1,sp,#0x1c
        0x00002d2e:    1a08        ..      SUBS     r0,r1,r0
        0x00002d30:    3020         0      ADDS     r0,r0,#0x20
        0x00002d32:    9003        ..      STR      r0,[sp,#0xc]
        0x00002d34:    0760        `.      LSLS     r0,r4,#29
        0x00002d36:    d504        ..      BPL      0x2d42 ; _printf_core + 870
        0x00002d38:    2001        .       MOVS     r0,#1
        0x00002d3a:    0400        ..      LSLS     r0,r0,#16
        0x00002d3c:    4384        .C      BICS     r4,r4,r0
        0x00002d3e:    9802        ..      LDR      r0,[sp,#8]
        0x00002d40:    e001        ..      B        0x2d46 ; _printf_core + 874
        0x00002d42:    2001        .       MOVS     r0,#1
        0x00002d44:    9002        ..      STR      r0,[sp,#8]
        0x00002d46:    9903        ..      LDR      r1,[sp,#0xc]
        0x00002d48:    4288        .B      CMP      r0,r1
        0x00002d4a:    dd01        ..      BLE      0x2d50 ; _printf_core + 884
        0x00002d4c:    1a40        @.      SUBS     r0,r0,r1
        0x00002d4e:    e000        ..      B        0x2d52 ; _printf_core + 886
        0x00002d50:    2000        .       MOVS     r0,#0
        0x00002d52:    1841        A.      ADDS     r1,r0,r1
        0x00002d54:    9002        ..      STR      r0,[sp,#8]
        0x00002d56:    9801        ..      LDR      r0,[sp,#4]
        0x00002d58:    1809        ..      ADDS     r1,r1,r0
        0x00002d5a:    9800        ..      LDR      r0,[sp,#0]
        0x00002d5c:    1a40        @.      SUBS     r0,r0,r1
        0x00002d5e:    9000        ..      STR      r0,[sp,#0]
        0x00002d60:    03e0        ..      LSLS     r0,r4,#15
        0x00002d62:    d406        ..      BMI      0x2d72 ; _printf_core + 918
        0x00002d64:    4621        !F      MOV      r1,r4
        0x00002d66:    9b14        ..      LDR      r3,[sp,#0x50]
        0x00002d68:    9a13        ..      LDR      r2,[sp,#0x4c]
        0x00002d6a:    9800        ..      LDR      r0,[sp,#0]
        0x00002d6c:    f000f85a    ..Z.    BL       _printf_pre_padding ; 0x2e24
        0x00002d70:    1986        ..      ADDS     r6,r0,r6
        0x00002d72:    2000        .       MOVS     r0,#0
        0x00002d74:    9004        ..      STR      r0,[sp,#0x10]
        0x00002d76:    e008        ..      B        0x2d8a ; _printf_core + 942
        0x00002d78:    a906        ..      ADD      r1,sp,#0x18
        0x00002d7a:    5c08        .\      LDRB     r0,[r1,r0]
        0x00002d7c:    9a14        ..      LDR      r2,[sp,#0x50]
        0x00002d7e:    9913        ..      LDR      r1,[sp,#0x4c]
        0x00002d80:    4790        .G      BLX      r2
        0x00002d82:    9804        ..      LDR      r0,[sp,#0x10]
        0x00002d84:    1c40        @.      ADDS     r0,r0,#1
        0x00002d86:    1c76        v.      ADDS     r6,r6,#1
        0x00002d88:    9004        ..      STR      r0,[sp,#0x10]
        0x00002d8a:    9901        ..      LDR      r1,[sp,#4]
        0x00002d8c:    4288        .B      CMP      r0,r1
        0x00002d8e:    dbf3        ..      BLT      0x2d78 ; _printf_core + 924
        0x00002d90:    03e0        ..      LSLS     r0,r4,#15
        0x00002d92:    d50c        ..      BPL      0x2dae ; _printf_core + 978
        0x00002d94:    4621        !F      MOV      r1,r4
        0x00002d96:    9b14        ..      LDR      r3,[sp,#0x50]
        0x00002d98:    9a13        ..      LDR      r2,[sp,#0x4c]
        0x00002d9a:    9800        ..      LDR      r0,[sp,#0]
        0x00002d9c:    f000f842    ..B.    BL       _printf_pre_padding ; 0x2e24
        0x00002da0:    1986        ..      ADDS     r6,r0,r6
        0x00002da2:    e004        ..      B        0x2dae ; _printf_core + 978
        0x00002da4:    9a14        ..      LDR      r2,[sp,#0x50]
        0x00002da6:    2030        0       MOVS     r0,#0x30
        0x00002da8:    9913        ..      LDR      r1,[sp,#0x4c]
        0x00002daa:    4790        .G      BLX      r2
        0x00002dac:    1c76        v.      ADDS     r6,r6,#1
        0x00002dae:    9902        ..      LDR      r1,[sp,#8]
        0x00002db0:    1e48        H.      SUBS     r0,r1,#1
        0x00002db2:    9002        ..      STR      r0,[sp,#8]
        0x00002db4:    2900        .)      CMP      r1,#0
        0x00002db6:    dcf5        ..      BGT      0x2da4 ; _printf_core + 968
        0x00002db8:    e008        ..      B        0x2dcc ; _printf_core + 1008
        0x00002dba:    980f        ..      LDR      r0,[sp,#0x3c]
        0x00002dbc:    990f        ..      LDR      r1,[sp,#0x3c]
        0x00002dbe:    7800        .x      LDRB     r0,[r0,#0]
        0x00002dc0:    1c49        I.      ADDS     r1,r1,#1
        0x00002dc2:    910f        ..      STR      r1,[sp,#0x3c]
        0x00002dc4:    9a14        ..      LDR      r2,[sp,#0x50]
        0x00002dc6:    9913        ..      LDR      r1,[sp,#0x4c]
        0x00002dc8:    4790        .G      BLX      r2
        0x00002dca:    1c76        v.      ADDS     r6,r6,#1
        0x00002dcc:    9903        ..      LDR      r1,[sp,#0xc]
        0x00002dce:    1e48        H.      SUBS     r0,r1,#1
        0x00002dd0:    9003        ..      STR      r0,[sp,#0xc]
        0x00002dd2:    2900        .)      CMP      r1,#0
        0x00002dd4:    dcf1        ..      BGT      0x2dba ; _printf_core + 990
        0x00002dd6:    e6fa        ..      B        0x2bce ; _printf_core + 498
    $d
        0x00002dd8:    00012809    .(..    DCD    75785
        0x00002ddc:    33323130    0123    DCD    858927408
        0x00002de0:    37363534    4567    DCD    926299444
        0x00002de4:    62613938    89ab    DCD    1650538808
        0x00002de8:    66656463    cdef    DCD    1717920867
        0x00002dec:    00000000    ....    DCD    0
        0x00002df0:    33323130    0123    DCD    858927408
        0x00002df4:    37363534    4567    DCD    926299444
        0x00002df8:    42413938    89AB    DCD    1111570744
        0x00002dfc:    46454443    CDEF    DCD    1178944579
        0x00002e00:    00000000    ....    DCD    0
    $t
    i._printf_post_padding
    _printf_post_padding
        0x00002e04:    b5f8        ..      PUSH     {r3-r7,lr}
        0x00002e06:    4604        .F      MOV      r4,r0
        0x00002e08:    2500        .%      MOVS     r5,#0
        0x00002e0a:    461e        .F      MOV      r6,r3
        0x00002e0c:    4617        .F      MOV      r7,r2
        0x00002e0e:    0488        ..      LSLS     r0,r1,#18
        0x00002e10:    d404        ..      BMI      0x2e1c ; _printf_post_padding + 24
        0x00002e12:    e005        ..      B        0x2e20 ; _printf_post_padding + 28
        0x00002e14:    4639        9F      MOV      r1,r7
        0x00002e16:    2020                MOVS     r0,#0x20
        0x00002e18:    47b0        .G      BLX      r6
        0x00002e1a:    1c6d        m.      ADDS     r5,r5,#1
        0x00002e1c:    1e64        d.      SUBS     r4,r4,#1
        0x00002e1e:    d5f9        ..      BPL      0x2e14 ; _printf_post_padding + 16
        0x00002e20:    4628        (F      MOV      r0,r5
        0x00002e22:    bdf8        ..      POP      {r3-r7,pc}
    i._printf_pre_padding
    _printf_pre_padding
        0x00002e24:    b5ff        ..      PUSH     {r0-r7,lr}
        0x00002e26:    4604        .F      MOV      r4,r0
        0x00002e28:    2500        .%      MOVS     r5,#0
        0x00002e2a:    b081        ..      SUB      sp,sp,#4
        0x00002e2c:    461e        .F      MOV      r6,r3
        0x00002e2e:    03c8        ..      LSLS     r0,r1,#15
        0x00002e30:    d501        ..      BPL      0x2e36 ; _printf_pre_padding + 18
        0x00002e32:    2730        0'      MOVS     r7,#0x30
        0x00002e34:    e000        ..      B        0x2e38 ; _printf_pre_padding + 20
        0x00002e36:    2720         '      MOVS     r7,#0x20
        0x00002e38:    0488        ..      LSLS     r0,r1,#18
        0x00002e3a:    d504        ..      BPL      0x2e46 ; _printf_pre_padding + 34
        0x00002e3c:    e005        ..      B        0x2e4a ; _printf_pre_padding + 38
        0x00002e3e:    4638        8F      MOV      r0,r7
        0x00002e40:    9903        ..      LDR      r1,[sp,#0xc]
        0x00002e42:    47b0        .G      BLX      r6
        0x00002e44:    1c6d        m.      ADDS     r5,r5,#1
        0x00002e46:    1e64        d.      SUBS     r4,r4,#1
        0x00002e48:    d5f9        ..      BPL      0x2e3e ; _printf_pre_padding + 26
        0x00002e4a:    4628        (F      MOV      r0,r5
        0x00002e4c:    b005        ..      ADD      sp,sp,#0x14
        0x00002e4e:    bdf0        ..      POP      {r4-r7,pc}
    i._snputc
    _snputc
        0x00002e50:    684a        Jh      LDR      r2,[r1,#4]
        0x00002e52:    2a00        .*      CMP      r2,#0
        0x00002e54:    d006        ..      BEQ      0x2e64 ; _snputc + 20
        0x00002e56:    680a        .h      LDR      r2,[r1,#0]
        0x00002e58:    1c53        S.      ADDS     r3,r2,#1
        0x00002e5a:    600b        .`      STR      r3,[r1,#0]
        0x00002e5c:    7010        .p      STRB     r0,[r2,#0]
        0x00002e5e:    6848        Hh      LDR      r0,[r1,#4]
        0x00002e60:    1e40        @.      SUBS     r0,r0,#1
        0x00002e62:    6048        H`      STR      r0,[r1,#4]
        0x00002e64:    4770        pG      BX       lr
    i.can_update_spt
    can_update_spt
        0x00002e66:    b5f8        ..      PUSH     {r3-r7,lr}
        0x00002e68:    4607        .F      MOV      r7,r0
        0x00002e6a:    460d        .F      MOV      r5,r1
        0x00002e6c:    4616        .F      MOV      r6,r2
        0x00002e6e:    461c        .F      MOV      r4,r3
        0x00002e70:    1c69        i.      ADDS     r1,r5,#1
        0x00002e72:    4379        yC      MULS     r1,r7,r1
        0x00002e74:    4608        .F      MOV      r0,r1
        0x00002e76:    217d        }!      MOVS     r1,#0x7d
        0x00002e78:    00c9        ..      LSLS     r1,r1,#3
        0x00002e7a:    f7fdf977    ..w.    BL       __aeabi_idiv ; 0x16c
        0x00002e7e:    1c69        i.      ADDS     r1,r5,#1
        0x00002e80:    1a08        ..      SUBS     r0,r1,r0
        0x00002e82:    6020         `      STR      r0,[r4,#0]
        0x00002e84:    6820         h      LDR      r0,[r4,#0]
        0x00002e86:    2800        .(      CMP      r0,#0
        0x00002e88:    d101        ..      BNE      0x2e8e ; can_update_spt + 40
        0x00002e8a:    2001        .       MOVS     r0,#1
        0x00002e8c:    6020         `      STR      r0,[r4,#0]
        0x00002e8e:    6820         h      LDR      r0,[r4,#0]
        0x00002e90:    2808        .(      CMP      r0,#8
        0x00002e92:    d901        ..      BLS      0x2e98 ; can_update_spt + 50
        0x00002e94:    2008        .       MOVS     r0,#8
        0x00002e96:    6020         `      STR      r0,[r4,#0]
        0x00002e98:    6820         h      LDR      r0,[r4,#0]
        0x00002e9a:    1a28        (.      SUBS     r0,r5,r0
        0x00002e9c:    6030        0`      STR      r0,[r6,#0]
        0x00002e9e:    6830        0h      LDR      r0,[r6,#0]
        0x00002ea0:    2810        .(      CMP      r0,#0x10
        0x00002ea2:    d904        ..      BLS      0x2eae ; can_update_spt + 72
        0x00002ea4:    2010        .       MOVS     r0,#0x10
        0x00002ea6:    6030        0`      STR      r0,[r6,#0]
        0x00002ea8:    6830        0h      LDR      r0,[r6,#0]
        0x00002eaa:    1a28        (.      SUBS     r0,r5,r0
        0x00002eac:    6020         `      STR      r0,[r4,#0]
        0x00002eae:    1c69        i.      ADDS     r1,r5,#1
        0x00002eb0:    6822        "h      LDR      r2,[r4,#0]
        0x00002eb2:    1a89        ..      SUBS     r1,r1,r2
        0x00002eb4:    227d        }"      MOVS     r2,#0x7d
        0x00002eb6:    00d2        ..      LSLS     r2,r2,#3
        0x00002eb8:    4351        QC      MULS     r1,r2,r1
        0x00002eba:    4608        .F      MOV      r0,r1
        0x00002ebc:    1c69        i.      ADDS     r1,r5,#1
        0x00002ebe:    f7fdf955    ..U.    BL       __aeabi_idiv ; 0x16c
        0x00002ec2:    bdf8        ..      POP      {r3-r7,pc}
    i.fputc
    fputc
        0x00002ec4:    b530        0.      PUSH     {r4,r5,lr}
        0x00002ec6:    4604        .F      MOV      r4,r0
        0x00002ec8:    460d        .F      MOV      r5,r1
        0x00002eca:    4620         F      MOV      r0,r4
        0x00002ecc:    f7fff93c    ..<.    BL       SendChar ; 0x2148
        0x00002ed0:    4620         F      MOV      r0,r4
        0x00002ed2:    bd30        0.      POP      {r4,r5,pc}
    i.free
    free
        0x00002ed4:    b510        ..      PUSH     {r4,lr}
        0x00002ed6:    2800        .(      CMP      r0,#0
        0x00002ed8:    d023        #.      BEQ      0x2f22 ; free + 78
        0x00002eda:    4b12        .K      LDR      r3,[pc,#72] ; [0x2f24] = 0x200000bc
        0x00002edc:    2200        ."      MOVS     r2,#0
        0x00002ede:    1f00        ..      SUBS     r0,r0,#4
        0x00002ee0:    6819        .h      LDR      r1,[r3,#0]
        0x00002ee2:    e003        ..      B        0x2eec ; free + 24
        0x00002ee4:    4281        .B      CMP      r1,r0
        0x00002ee6:    d803        ..      BHI      0x2ef0 ; free + 28
        0x00002ee8:    460a        .F      MOV      r2,r1
        0x00002eea:    6849        Ih      LDR      r1,[r1,#4]
        0x00002eec:    2900        .)      CMP      r1,#0
        0x00002eee:    d1f9        ..      BNE      0x2ee4 ; free + 16
        0x00002ef0:    2a00        .*      CMP      r2,#0
        0x00002ef2:    d00a        ..      BEQ      0x2f0a ; free + 54
        0x00002ef4:    6813        .h      LDR      r3,[r2,#0]
        0x00002ef6:    1a84        ..      SUBS     r4,r0,r2
        0x00002ef8:    429c        .B      CMP      r4,r3
        0x00002efa:    d104        ..      BNE      0x2f06 ; free + 50
        0x00002efc:    6800        .h      LDR      r0,[r0,#0]
        0x00002efe:    1818        ..      ADDS     r0,r3,r0
        0x00002f00:    6010        .`      STR      r0,[r2,#0]
        0x00002f02:    4610        .F      MOV      r0,r2
        0x00002f04:    e002        ..      B        0x2f0c ; free + 56
        0x00002f06:    6050        P`      STR      r0,[r2,#4]
        0x00002f08:    e000        ..      B        0x2f0c ; free + 56
        0x00002f0a:    6018        .`      STR      r0,[r3,#0]
        0x00002f0c:    2900        .)      CMP      r1,#0
        0x00002f0e:    d007        ..      BEQ      0x2f20 ; free + 76
        0x00002f10:    6802        .h      LDR      r2,[r0,#0]
        0x00002f12:    1a0b        ..      SUBS     r3,r1,r0
        0x00002f14:    4293        .B      CMP      r3,r2
        0x00002f16:    d103        ..      BNE      0x2f20 ; free + 76
        0x00002f18:    680b        .h      LDR      r3,[r1,#0]
        0x00002f1a:    18d2        ..      ADDS     r2,r2,r3
        0x00002f1c:    6002        .`      STR      r2,[r0,#0]
        0x00002f1e:    6849        Ih      LDR      r1,[r1,#4]
        0x00002f20:    6041        A`      STR      r1,[r0,#4]
        0x00002f22:    bd10        ..      POP      {r4,pc}
    $d
        0x00002f24:    200000bc    ...     DCD    536871100
    $t
    i.list_insert_tail
    list_insert_tail
        0x00002f28:    b570        p.      PUSH     {r4-r6,lr}
        0x00002f2a:    4604        .F      MOV      r4,r0
        0x00002f2c:    460d        .F      MOV      r5,r1
        0x00002f2e:    2d00        .-      CMP      r5,#0
        0x00002f30:    d013        ..      BEQ      0x2f5a ; list_insert_tail + 50
        0x00002f32:    2c00        .,      CMP      r4,#0
        0x00002f34:    d011        ..      BEQ      0x2f5a ; list_insert_tail + 50
        0x00002f36:    f7fefd6b    ..k.    BL       DisableInterrupt ; 0x1a10
        0x00002f3a:    6820         h      LDR      r0,[r4,#0]
        0x00002f3c:    2800        .(      CMP      r0,#0
        0x00002f3e:    d101        ..      BNE      0x2f44 ; list_insert_tail + 28
        0x00002f40:    6025        %`      STR      r5,[r4,#0]
        0x00002f42:    e006        ..      B        0x2f52 ; list_insert_tail + 42
        0x00002f44:    6826        &h      LDR      r6,[r4,#0]
        0x00002f46:    e000        ..      B        0x2f4a ; list_insert_tail + 34
        0x00002f48:    6836        6h      LDR      r6,[r6,#0]
        0x00002f4a:    6830        0h      LDR      r0,[r6,#0]
        0x00002f4c:    2800        .(      CMP      r0,#0
        0x00002f4e:    d1fb        ..      BNE      0x2f48 ; list_insert_tail + 32
        0x00002f50:    6035        5`      STR      r5,[r6,#0]
        0x00002f52:    2000        .       MOVS     r0,#0
        0x00002f54:    6028        (`      STR      r0,[r5,#0]
        0x00002f56:    f7fefd65    ..e.    BL       EnableInterrupt ; 0x1a24
        0x00002f5a:    bd70        p.      POP      {r4-r6,pc}
    i.main
    main
        0x00002f5c:    b51c        ..      PUSH     {r2-r4,lr}
        0x00002f5e:    2700        .'      MOVS     r7,#0
        0x00002f60:    2005        .       MOVS     r0,#5
        0x00002f62:    9001        ..      STR      r0,[sp,#4]
        0x00002f64:    2500        .%      MOVS     r5,#0
        0x00002f66:    2000        .       MOVS     r0,#0
        0x00002f68:    9000        ..      STR      r0,[sp,#0]
        0x00002f6a:    bf00        ..      NOP      
        0x00002f6c:    e006        ..      B        0x2f7c ; main + 32
        0x00002f6e:    2059        Y       MOVS     r0,#0x59
        0x00002f70:    4941        AI      LDR      r1,[pc,#260] ; [0x3078] = 0x50000100
        0x00002f72:    6008        .`      STR      r0,[r1,#0]
        0x00002f74:    2016        .       MOVS     r0,#0x16
        0x00002f76:    6008        .`      STR      r0,[r1,#0]
        0x00002f78:    2088        .       MOVS     r0,#0x88
        0x00002f7a:    6008        .`      STR      r0,[r1,#0]
        0x00002f7c:    483e        >H      LDR      r0,[pc,#248] ; [0x3078] = 0x50000100
        0x00002f7e:    6800        .h      LDR      r0,[r0,#0]
        0x00002f80:    2801        .(      CMP      r0,#1
        0x00002f82:    d1f4        ..      BNE      0x2f6e ; main + 18
        0x00002f84:    bf00        ..      NOP      
        0x00002f86:    f7fff859    ..Y.    BL       SYS_Init ; 0x203c
        0x00002f8a:    bf00        ..      NOP      
        0x00002f8c:    2000        .       MOVS     r0,#0
        0x00002f8e:    493a        :I      LDR      r1,[pc,#232] ; [0x3078] = 0x50000100
        0x00002f90:    6008        .`      STR      r0,[r1,#0]
        0x00002f92:    bf00        ..      NOP      
        0x00002f94:    2300        .#      MOVS     r3,#0
        0x00002f96:    2201        ."      MOVS     r2,#1
        0x00002f98:    4611        .F      MOV      r1,r2
        0x00002f9a:    2005        .       MOVS     r0,#5
        0x00002f9c:    0200        ..      LSLS     r0,r0,#8
        0x00002f9e:    f7fffcc5    ....    BL       WDT_Open ; 0x292c
        0x00002fa2:    f7fffaf5    ....    BL       TimersInit ; 0x2590
        0x00002fa6:    f7fdfafd    ....    BL       BoardIoInit ; 0x5a4
        0x00002faa:    2005        .       MOVS     r0,#5
        0x00002fac:    f000f8b2    ....    BL       mdelay ; 0x3114
        0x00002fb0:    f7fdfa7c    ..|.    BL       BoardComInit ; 0x4ac
        0x00002fb4:    a031        1.      ADR      r0,{pc}+0xc8 ; 0x307c
        0x00002fb6:    f7fffcc7    ....    BL       __0printf$8 ; 0x2948
        0x00002fba:    f7fdf9e7    ....    BL       ADC_SampleInit ; 0x38c
        0x00002fbe:    4934        4I      LDR      r1,[pc,#208] ; [0x3090] = 0x7a120
        0x00002fc0:    2000        .       MOVS     r0,#0
        0x00002fc2:    f7fdfd33    ..3.    BL       CAN_Init ; 0xa2c
        0x00002fc6:    a033        3.      ADR      r0,{pc}+0xce ; 0x3094
        0x00002fc8:    f7fffcbe    ....    BL       __0printf$8 ; 0x2948
        0x00002fcc:    f7fffc9e    ....    BL       WDT_Feed ; 0x290c
        0x00002fd0:    e051        Q.      B        0x3076 ; main + 282
        0x00002fd2:    f7fefe37    ..7.    BL       GetRunTime ; 0x1c44
        0x00002fd6:    4604        .F      MOV      r4,r0
        0x00002fd8:    1ba0        ..      SUBS     r0,r4,r6
        0x00002fda:    280a        .(      CMP      r0,#0xa
        0x00002fdc:    d94b        K.      BLS      0x3076 ; main + 282
        0x00002fde:    4626        &F      MOV      r6,r4
        0x00002fe0:    482e        .H      LDR      r0,[pc,#184] ; [0x309c] = 0x50004200
        0x00002fe2:    6ac0        .j      LDR      r0,[r0,#0x2c]
        0x00002fe4:    2800        .(      CMP      r0,#0
        0x00002fe6:    d104        ..      BNE      0x2ff2 ; main + 150
        0x00002fe8:    2001        .       MOVS     r0,#1
        0x00002fea:    492c        ,I      LDR      r1,[pc,#176] ; [0x309c] = 0x50004200
        0x00002fec:    3180        .1      ADDS     r1,r1,#0x80
        0x00002fee:    6188        .a      STR      r0,[r1,#0x18]
        0x00002ff0:    e00a        ..      B        0x3008 ; main + 172
        0x00002ff2:    2000        .       MOVS     r0,#0
        0x00002ff4:    4929        )I      LDR      r1,[pc,#164] ; [0x309c] = 0x50004200
        0x00002ff6:    3180        .1      ADDS     r1,r1,#0x80
        0x00002ff8:    6188        .a      STR      r0,[r1,#0x18]
        0x00002ffa:    4829        )H      LDR      r0,[pc,#164] ; [0x30a0] = 0x20000034
        0x00002ffc:    6800        .h      LDR      r0,[r0,#0]
        0x00002ffe:    2800        .(      CMP      r0,#0
        0x00003000:    d102        ..      BNE      0x3008 ; main + 172
        0x00003002:    2096        .       MOVS     r0,#0x96
        0x00003004:    4926        &I      LDR      r1,[pc,#152] ; [0x30a0] = 0x20000034
        0x00003006:    6008        .`      STR      r0,[r1,#0]
        0x00003008:    4824        $H      LDR      r0,[pc,#144] ; [0x309c] = 0x50004200
        0x0000300a:    6ac0        .j      LDR      r0,[r0,#0x2c]
        0x0000300c:    2800        .(      CMP      r0,#0
        0x0000300e:    d101        ..      BNE      0x3014 ; main + 184
        0x00003010:    2001        .       MOVS     r0,#1
        0x00003012:    e000        ..      B        0x3016 ; main + 186
        0x00003014:    2000        .       MOVS     r0,#0
        0x00003016:    4605        .F      MOV      r5,r0
        0x00003018:    9800        ..      LDR      r0,[sp,#0]
        0x0000301a:    42a8        .B      CMP      r0,r5
        0x0000301c:    d017        ..      BEQ      0x304e ; main + 242
        0x0000301e:    2d01        .-      CMP      r5,#1
        0x00003020:    d104        ..      BNE      0x302c ; main + 208
        0x00003022:    2000        .       MOVS     r0,#0
        0x00003024:    491f        .I      LDR      r1,[pc,#124] ; [0x30a4] = 0x2000002c
        0x00003026:    7008        .p      STRB     r0,[r1,#0]
        0x00003028:    9500        ..      STR      r5,[sp,#0]
        0x0000302a:    e010        ..      B        0x304e ; main + 242
        0x0000302c:    481c        .H      LDR      r0,[pc,#112] ; [0x30a0] = 0x20000034
        0x0000302e:    6800        .h      LDR      r0,[r0,#0]
        0x00003030:    2800        .(      CMP      r0,#0
        0x00003032:    dd0c        ..      BLE      0x304e ; main + 242
        0x00003034:    481a        .H      LDR      r0,[pc,#104] ; [0x30a0] = 0x20000034
        0x00003036:    6800        .h      LDR      r0,[r0,#0]
        0x00003038:    1e40        @.      SUBS     r0,r0,#1
        0x0000303a:    4919        .I      LDR      r1,[pc,#100] ; [0x30a0] = 0x20000034
        0x0000303c:    6008        .`      STR      r0,[r1,#0]
        0x0000303e:    4608        .F      MOV      r0,r1
        0x00003040:    6800        .h      LDR      r0,[r0,#0]
        0x00003042:    2800        .(      CMP      r0,#0
        0x00003044:    d103        ..      BNE      0x304e ; main + 242
        0x00003046:    2001        .       MOVS     r0,#1
        0x00003048:    4916        .I      LDR      r1,[pc,#88] ; [0x30a4] = 0x2000002c
        0x0000304a:    7008        .p      STRB     r0,[r1,#0]
        0x0000304c:    9500        ..      STR      r5,[sp,#0]
        0x0000304e:    4638        8F      MOV      r0,r7
        0x00003050:    1c79        y.      ADDS     r1,r7,#1
        0x00003052:    b28f        ..      UXTH     r7,r1
        0x00003054:    280a        .(      CMP      r0,#0xa
        0x00003056:    dd02        ..      BLE      0x305e ; main + 258
        0x00003058:    f7feff4e    ..N.    BL       SC2SendRadarData ; 0x1ef8
        0x0000305c:    2700        .'      MOVS     r7,#0
        0x0000305e:    9801        ..      LDR      r0,[sp,#4]
        0x00003060:    1c41        A.      ADDS     r1,r0,#1
        0x00003062:    b289        ..      UXTH     r1,r1
        0x00003064:    9101        ..      STR      r1,[sp,#4]
        0x00003066:    280a        .(      CMP      r0,#0xa
        0x00003068:    dd03        ..      BLE      0x3072 ; main + 278
        0x0000306a:    f000f879    ..y.    BL       send_power_info_by_can ; 0x3160
        0x0000306e:    2000        .       MOVS     r0,#0
        0x00003070:    9001        ..      STR      r0,[sp,#4]
        0x00003072:    f7fffc4b    ..K.    BL       WDT_Feed ; 0x290c
        0x00003076:    e7ac        ..      B        0x2fd2 ; main + 118
    $d
        0x00003078:    50000100    ...P    DCD    1342177536
        0x0000307c:    0a0a0a0a    ....    DCD    168430090
        0x00003080:    74737953    Syst    DCD    1953724755
        0x00003084:    73206d65    em s    DCD    1931504997
        0x00003088:    74726174    tart    DCD    1953653108
        0x0000308c:    000a7075    up..    DCD    684149
        0x00003090:    0007a120     ...    DCD    500000
        0x00003094:    0a214b4f    OK!.    DCD    169954127
        0x00003098:    00000000    ....    DCD    0
        0x0000309c:    50004200    .B.P    DCD    1342194176
        0x000030a0:    20000034    4..     DCD    536870964
        0x000030a4:    2000002c    ,..     DCD    536870956
    $t
    i.malloc
    malloc
        0x000030a8:    b5f0        ..      PUSH     {r4-r7,lr}
        0x000030aa:    300b        .0      ADDS     r0,r0,#0xb
        0x000030ac:    08c1        ..      LSRS     r1,r0,#3
        0x000030ae:    00c9        ..      LSLS     r1,r1,#3
        0x000030b0:    4f14        .O      LDR      r7,[pc,#80] ; [0x3104] = 0x200000c0
        0x000030b2:    2600        .&      MOVS     r6,#0
        0x000030b4:    4a14        .J      LDR      r2,[pc,#80] ; [0x3108] = 0x200000bc
        0x000030b6:    e00f        ..      B        0x30d8 ; malloc + 48
        0x000030b8:    6803        .h      LDR      r3,[r0,#0]
        0x000030ba:    428b        .B      CMP      r3,r1
        0x000030bc:    d30b        ..      BCC      0x30d6 ; malloc + 46
        0x000030be:    428b        .B      CMP      r3,r1
        0x000030c0:    d905        ..      BLS      0x30ce ; malloc + 38
        0x000030c2:    1a5c        \.      SUBS     r4,r3,r1
        0x000030c4:    1843        C.      ADDS     r3,r0,r1
        0x000030c6:    6845        Eh      LDR      r5,[r0,#4]
        0x000030c8:    c330        0.      STM      r3!,{r4,r5}
        0x000030ca:    3b08        .;      SUBS     r3,r3,#8
        0x000030cc:    e000        ..      B        0x30d0 ; malloc + 40
        0x000030ce:    6843        Ch      LDR      r3,[r0,#4]
        0x000030d0:    6013        .`      STR      r3,[r2,#0]
        0x000030d2:    c002        ..      STM      r0!,{r1}
        0x000030d4:    e004        ..      B        0x30e0 ; malloc + 56
        0x000030d6:    1d02        ..      ADDS     r2,r0,#4
        0x000030d8:    6810        .h      LDR      r0,[r2,#0]
        0x000030da:    2800        .(      CMP      r0,#0
        0x000030dc:    d1ec        ..      BNE      0x30b8 ; malloc + 16
        0x000030de:    4630        0F      MOV      r0,r6
        0x000030e0:    2800        .(      CMP      r0,#0
        0x000030e2:    d103        ..      BNE      0x30ec ; malloc + 68
        0x000030e4:    6838        8h      LDR      r0,[r7,#0]
        0x000030e6:    2800        .(      CMP      r0,#0
        0x000030e8:    d001        ..      BEQ      0x30ee ; malloc + 70
        0x000030ea:    2000        .       MOVS     r0,#0
        0x000030ec:    bdf0        ..      POP      {r4-r7,pc}
        0x000030ee:    4a06        .J      LDR      r2,[pc,#24] ; [0x3108] = 0x200000bc
        0x000030f0:    4806        .H      LDR      r0,[pc,#24] ; [0x310c] = 0x20003124
        0x000030f2:    6010        .`      STR      r0,[r2,#0]
        0x000030f4:    4a06        .J      LDR      r2,[pc,#24] ; [0x3110] = 0x20003120
        0x000030f6:    1a12        ..      SUBS     r2,r2,r0
        0x000030f8:    08d2        ..      LSRS     r2,r2,#3
        0x000030fa:    00d2        ..      LSLS     r2,r2,#3
        0x000030fc:    c044        D.      STM      r0!,{r2,r6}
        0x000030fe:    2001        .       MOVS     r0,#1
        0x00003100:    6038        8`      STR      r0,[r7,#0]
        0x00003102:    e7d7        ..      B        0x30b4 ; malloc + 12
    $d
        0x00003104:    200000c0    ...     DCD    536871104
        0x00003108:    200000bc    ...     DCD    536871100
        0x0000310c:    20003124    $1.     DCD    536883492
        0x00003110:    20003120     1.     DCD    536883488
    $t
    i.mdelay
    mdelay
        0x00003114:    2800        .(      CMP      r0,#0
        0x00003116:    d100        ..      BNE      0x311a ; mdelay + 6
        0x00003118:    4770        pG      BX       lr
        0x0000311a:    b672        r.      CPSID    i
        0x0000311c:    4906        .I      LDR      r1,[pc,#24] ; [0x3138] = 0x20000048
        0x0000311e:    6008        .`      STR      r0,[r1,#0]
        0x00003120:    2100        .!      MOVS     r1,#0
        0x00003122:    4a06        .J      LDR      r2,[pc,#24] ; [0x313c] = 0x2000004c
        0x00003124:    7011        .p      STRB     r1,[r2,#0]
        0x00003126:    b662        b.      CPSIE    i
        0x00003128:    bf00        ..      NOP      
        0x0000312a:    4904        .I      LDR      r1,[pc,#16] ; [0x313c] = 0x2000004c
        0x0000312c:    7809        .x      LDRB     r1,[r1,#0]
        0x0000312e:    2900        .)      CMP      r1,#0
        0x00003130:    d0fb        ..      BEQ      0x312a ; mdelay + 22
        0x00003132:    bf00        ..      NOP      
        0x00003134:    e7f0        ..      B        0x3118 ; mdelay + 4
    $d
        0x00003136:    0000        ..      DCW    0
        0x00003138:    20000048    H..     DCD    536870984
        0x0000313c:    2000004c    L..     DCD    536870988
    $t
    i.puts
    puts
        0x00003140:    b510        ..      PUSH     {r4,lr}
        0x00003142:    4604        .F      MOV      r4,r0
        0x00003144:    e001        ..      B        0x314a ; puts + 10
        0x00003146:    f7fffebd    ....    BL       fputc ; 0x2ec4
        0x0000314a:    7820         x      LDRB     r0,[r4,#0]
        0x0000314c:    1c64        d.      ADDS     r4,r4,#1
        0x0000314e:    4903        .I      LDR      r1,[pc,#12] ; [0x315c] = 0x200000b0
        0x00003150:    2800        .(      CMP      r0,#0
        0x00003152:    d1f8        ..      BNE      0x3146 ; puts + 6
        0x00003154:    200a        .       MOVS     r0,#0xa
        0x00003156:    f7fffeb5    ....    BL       fputc ; 0x2ec4
        0x0000315a:    bd10        ..      POP      {r4,pc}
    $d
        0x0000315c:    200000b0    ...     DCD    536871088
    $t
    i.send_power_info_by_can
    send_power_info_by_can
        0x00003160:    b5f8        ..      PUSH     {r3-r7,lr}
        0x00003162:    2007        .       MOVS     r0,#7
        0x00003164:    f7fdf8c6    ....    BL       ADC_GetChanVolt ; 0x2f4
        0x00003168:    b287        ..      UXTH     r7,r0
        0x0000316a:    2006        .       MOVS     r0,#6
        0x0000316c:    f7fdf8c2    ....    BL       ADC_GetChanVolt ; 0x2f4
        0x00003170:    b286        ..      UXTH     r6,r0
        0x00003172:    484e        NH      LDR      r0,[pc,#312] ; [0x32ac] = 0x2000002c
        0x00003174:    7800        .x      LDRB     r0,[r0,#0]
        0x00003176:    2801        .(      CMP      r0,#1
        0x00003178:    d109        ..      BNE      0x318e ; send_power_info_by_can + 46
        0x0000317a:    484d        MH      LDR      r0,[pc,#308] ; [0x32b0] = 0x20000038
        0x0000317c:    7801        .x      LDRB     r1,[r0,#0]
        0x0000317e:    6800        .h      LDR      r0,[r0,#0]
        0x00003180:    1c40        @.      ADDS     r0,r0,#1
        0x00003182:    4a4b        KJ      LDR      r2,[pc,#300] ; [0x32b0] = 0x20000038
        0x00003184:    6010        .`      STR      r0,[r2,#0]
        0x00003186:    0748        H.      LSLS     r0,r1,#29
        0x00003188:    0f00        ..      LSRS     r0,r0,#28
        0x0000318a:    494a        JI      LDR      r1,[pc,#296] ; [0x32b4] = 0x200028c4
        0x0000318c:    520e        .R      STRH     r6,[r1,r0]
        0x0000318e:    484a        JH      LDR      r0,[pc,#296] ; [0x32b8] = 0x2000002d
        0x00003190:    7800        .x      LDRB     r0,[r0,#0]
        0x00003192:    4946        FI      LDR      r1,[pc,#280] ; [0x32ac] = 0x2000002c
        0x00003194:    7809        .x      LDRB     r1,[r1,#0]
        0x00003196:    4288        .B      CMP      r0,r1
        0x00003198:    d04a        J.      BEQ      0x3230 ; send_power_info_by_can + 208
        0x0000319a:    4844        DH      LDR      r0,[pc,#272] ; [0x32ac] = 0x2000002c
        0x0000319c:    7800        .x      LDRB     r0,[r0,#0]
        0x0000319e:    2800        .(      CMP      r0,#0
        0x000031a0:    d136        6.      BNE      0x3210 ; send_power_info_by_can + 176
        0x000031a2:    200a        .       MOVS     r0,#0xa
        0x000031a4:    4945        EI      LDR      r1,[pc,#276] ; [0x32bc] = 0x2000003c
        0x000031a6:    6008        .`      STR      r0,[r1,#0]
        0x000031a8:    2000        .       MOVS     r0,#0
        0x000031aa:    4945        EI      LDR      r1,[pc,#276] ; [0x32c0] = 0x20000040
        0x000031ac:    8008        ..      STRH     r0,[r1,#0]
        0x000031ae:    4840        @H      LDR      r0,[pc,#256] ; [0x32b0] = 0x20000038
        0x000031b0:    6800        .h      LDR      r0,[r0,#0]
        0x000031b2:    2808        .(      CMP      r0,#8
        0x000031b4:    d218        ..      BCS      0x31e8 ; send_power_info_by_can + 136
        0x000031b6:    2500        .%      MOVS     r5,#0
        0x000031b8:    e009        ..      B        0x31ce ; send_power_info_by_can + 110
        0x000031ba:    0068        h.      LSLS     r0,r5,#1
        0x000031bc:    493d        =I      LDR      r1,[pc,#244] ; [0x32b4] = 0x200028c4
        0x000031be:    5a08        .Z      LDRH     r0,[r1,r0]
        0x000031c0:    493f        ?I      LDR      r1,[pc,#252] ; [0x32c0] = 0x20000040
        0x000031c2:    8809        ..      LDRH     r1,[r1,#0]
        0x000031c4:    1840        @.      ADDS     r0,r0,r1
        0x000031c6:    493e        >I      LDR      r1,[pc,#248] ; [0x32c0] = 0x20000040
        0x000031c8:    8008        ..      STRH     r0,[r1,#0]
        0x000031ca:    1c68        h.      ADDS     r0,r5,#1
        0x000031cc:    b285        ..      UXTH     r5,r0
        0x000031ce:    4838        8H      LDR      r0,[pc,#224] ; [0x32b0] = 0x20000038
        0x000031d0:    6800        .h      LDR      r0,[r0,#0]
        0x000031d2:    4285        .B      CMP      r5,r0
        0x000031d4:    d3f1        ..      BCC      0x31ba ; send_power_info_by_can + 90
        0x000031d6:    4836        6H      LDR      r0,[pc,#216] ; [0x32b0] = 0x20000038
        0x000031d8:    6801        .h      LDR      r1,[r0,#0]
        0x000031da:    4839        9H      LDR      r0,[pc,#228] ; [0x32c0] = 0x20000040
        0x000031dc:    8800        ..      LDRH     r0,[r0,#0]
        0x000031de:    f7fcffaf    ....    BL       __aeabi_uidiv ; 0x140
        0x000031e2:    4937        7I      LDR      r1,[pc,#220] ; [0x32c0] = 0x20000040
        0x000031e4:    8008        ..      STRH     r0,[r1,#0]
        0x000031e6:    e01f        ..      B        0x3228 ; send_power_info_by_can + 200
        0x000031e8:    2500        .%      MOVS     r5,#0
        0x000031ea:    e009        ..      B        0x3200 ; send_power_info_by_can + 160
        0x000031ec:    0068        h.      LSLS     r0,r5,#1
        0x000031ee:    4931        1I      LDR      r1,[pc,#196] ; [0x32b4] = 0x200028c4
        0x000031f0:    5a08        .Z      LDRH     r0,[r1,r0]
        0x000031f2:    4933        3I      LDR      r1,[pc,#204] ; [0x32c0] = 0x20000040
        0x000031f4:    8809        ..      LDRH     r1,[r1,#0]
        0x000031f6:    1840        @.      ADDS     r0,r0,r1
        0x000031f8:    4931        1I      LDR      r1,[pc,#196] ; [0x32c0] = 0x20000040
        0x000031fa:    8008        ..      STRH     r0,[r1,#0]
        0x000031fc:    1c68        h.      ADDS     r0,r5,#1
        0x000031fe:    b285        ..      UXTH     r5,r0
        0x00003200:    2d08        .-      CMP      r5,#8
        0x00003202:    dbf3        ..      BLT      0x31ec ; send_power_info_by_can + 140
        0x00003204:    482e        .H      LDR      r0,[pc,#184] ; [0x32c0] = 0x20000040
        0x00003206:    8800        ..      LDRH     r0,[r0,#0]
        0x00003208:    10c0        ..      ASRS     r0,r0,#3
        0x0000320a:    492d        -I      LDR      r1,[pc,#180] ; [0x32c0] = 0x20000040
        0x0000320c:    8008        ..      STRH     r0,[r1,#0]
        0x0000320e:    e00b        ..      B        0x3228 ; send_power_info_by_can + 200
        0x00003210:    2000        .       MOVS     r0,#0
        0x00003212:    492b        +I      LDR      r1,[pc,#172] ; [0x32c0] = 0x20000040
        0x00003214:    8008        ..      STRH     r0,[r1,#0]
        0x00003216:    4926        &I      LDR      r1,[pc,#152] ; [0x32b0] = 0x20000038
        0x00003218:    6008        .`      STR      r0,[r1,#0]
        0x0000321a:    2110        .!      MOVS     r1,#0x10
        0x0000321c:    4825        %H      LDR      r0,[pc,#148] ; [0x32b4] = 0x200028c4
        0x0000321e:    f7fdf802    ....    BL       __aeabi_memclr ; 0x226
        0x00003222:    2000        .       MOVS     r0,#0
        0x00003224:    4925        %I      LDR      r1,[pc,#148] ; [0x32bc] = 0x2000003c
        0x00003226:    6008        .`      STR      r0,[r1,#0]
        0x00003228:    4820         H      LDR      r0,[pc,#128] ; [0x32ac] = 0x2000002c
        0x0000322a:    7800        .x      LDRB     r0,[r0,#0]
        0x0000322c:    4922        "I      LDR      r1,[pc,#136] ; [0x32b8] = 0x2000002d
        0x0000322e:    7008        .p      STRB     r0,[r1,#0]
        0x00003230:    4924        $I      LDR      r1,[pc,#144] ; [0x32c4] = 0x20000094
        0x00003232:    2000        .       MOVS     r0,#0
        0x00003234:    f7fefac6    ....    BL       CanAllocMsg ; 0x17c4
        0x00003238:    4604        .F      MOV      r4,r0
        0x0000323a:    2c00        .,      CMP      r4,#0
        0x0000323c:    d028        (.      BEQ      0x3290 ; send_power_info_by_can + 304
        0x0000323e:    208d        .       MOVS     r0,#0x8d
        0x00003240:    0080        ..      LSLS     r0,r0,#2
        0x00003242:    6060        ``      STR      r0,[r4,#4]
        0x00003244:    2001        .       MOVS     r0,#1
        0x00003246:    7060        `p      STRB     r0,[r4,#1]
        0x00003248:    2000        .       MOVS     r0,#0
        0x0000324a:    7020         p      STRB     r0,[r4,#0]
        0x0000324c:    2008        .       MOVS     r0,#8
        0x0000324e:    70a0        .p      STRB     r0,[r4,#2]
        0x00003250:    481a        .H      LDR      r0,[pc,#104] ; [0x32bc] = 0x2000003c
        0x00003252:    6800        .h      LDR      r0,[r0,#0]
        0x00003254:    2800        .(      CMP      r0,#0
        0x00003256:    d001        ..      BEQ      0x325c ; send_power_info_by_can + 252
        0x00003258:    2001        .       MOVS     r0,#1
        0x0000325a:    e000        ..      B        0x325e ; send_power_info_by_can + 254
        0x0000325c:    2000        .       MOVS     r0,#0
        0x0000325e:    7220         r      STRB     r0,[r4,#8]
        0x00003260:    1239        9.      ASRS     r1,r7,#8
        0x00003262:    7261        ar      STRB     r1,[r4,#9]
        0x00003264:    72a7        .r      STRB     r7,[r4,#0xa]
        0x00003266:    4815        .H      LDR      r0,[pc,#84] ; [0x32bc] = 0x2000003c
        0x00003268:    6800        .h      LDR      r0,[r0,#0]
        0x0000326a:    2800        .(      CMP      r0,#0
        0x0000326c:    d001        ..      BEQ      0x3272 ; send_power_info_by_can + 274
        0x0000326e:    4814        .H      LDR      r0,[pc,#80] ; [0x32c0] = 0x20000040
        0x00003270:    8806        ..      LDRH     r6,[r0,#0]
        0x00003272:    1231        1.      ASRS     r1,r6,#8
        0x00003274:    72e1        .r      STRB     r1,[r4,#0xb]
        0x00003276:    7326        &s      STRB     r6,[r4,#0xc]
        0x00003278:    2100        .!      MOVS     r1,#0
        0x0000327a:    7361        as      STRB     r1,[r4,#0xd]
        0x0000327c:    73a1        .s      STRB     r1,[r4,#0xe]
        0x0000327e:    73e1        .s      STRB     r1,[r4,#0xf]
        0x00003280:    4621        !F      MOV      r1,r4
        0x00003282:    4810        .H      LDR      r0,[pc,#64] ; [0x32c4] = 0x20000094
        0x00003284:    f7fefb6a    ..j.    BL       CanMsgQueueSortedInsert ; 0x195c
        0x00003288:    2000        .       MOVS     r0,#0
        0x0000328a:    f7fdff0d    ....    BL       CAN_TriggerQueueSend ; 0x10a8
        0x0000328e:    e002        ..      B        0x3296 ; send_power_info_by_can + 310
        0x00003290:    a00d        ..      ADR      r0,{pc}+0x38 ; 0x32c8
        0x00003292:    f7fffb59    ..Y.    BL       __0printf$8 ; 0x2948
        0x00003296:    4809        .H      LDR      r0,[pc,#36] ; [0x32bc] = 0x2000003c
        0x00003298:    6800        .h      LDR      r0,[r0,#0]
        0x0000329a:    2800        .(      CMP      r0,#0
        0x0000329c:    d004        ..      BEQ      0x32a8 ; send_power_info_by_can + 328
        0x0000329e:    4807        .H      LDR      r0,[pc,#28] ; [0x32bc] = 0x2000003c
        0x000032a0:    6800        .h      LDR      r0,[r0,#0]
        0x000032a2:    1e40        @.      SUBS     r0,r0,#1
        0x000032a4:    4905        .I      LDR      r1,[pc,#20] ; [0x32bc] = 0x2000003c
        0x000032a6:    6008        .`      STR      r0,[r1,#0]
        0x000032a8:    bdf8        ..      POP      {r3-r7,pc}
    $d
        0x000032aa:    0000        ..      DCW    0
        0x000032ac:    2000002c    ,..     DCD    536870956
        0x000032b0:    20000038    8..     DCD    536870968
        0x000032b4:    200028c4    .(.     DCD    536881348
        0x000032b8:    2000002d    -..     DCD    536870957
        0x000032bc:    2000003c    <..     DCD    536870972
        0x000032c0:    20000040    @..     DCD    536870976
        0x000032c4:    20000094    ...     DCD    536871060
        0x000032c8:    314e4143    CAN1    DCD    827212099
        0x000032cc:    6e657320     sen    DCD    1852142368
        0x000032d0:    75712064    d qu    DCD    1970348132
        0x000032d4:    20657565    eue     DCD    543520101
        0x000032d8:    66207369    is f    DCD    1713402729
        0x000032dc:    2c6c6c75    ull,    DCD    745303157
        0x000032e0:    6f726420     dro    DCD    1869767712
        0x000032e4:    61702070    p pa    DCD    1634738288
        0x000032e8:    74656b63    cket    DCD    1952803683
        0x000032ec:    0000000a    ....    DCD    10
    $t
    i.stackDump
    stackDump
        0x000032f0:    b510        ..      PUSH     {r4,lr}
        0x000032f2:    4604        .F      MOV      r4,r0
        0x000032f4:    a224        $.      ADR      r2,{pc}+0x94 ; 0x3388
        0x000032f6:    2110        .!      MOVS     r1,#0x10
        0x000032f8:    4826        &H      LDR      r0,[pc,#152] ; [0x3394] = 0x20003104
        0x000032fa:    6823        #h      LDR      r3,[r4,#0]
        0x000032fc:    f7fffb34    ..4.    BL       __0snprintf$8 ; 0x2968
        0x00003300:    4824        $H      LDR      r0,[pc,#144] ; [0x3394] = 0x20003104
        0x00003302:    f7ffff1d    ....    BL       puts ; 0x3140
        0x00003306:    a224        $.      ADR      r2,{pc}+0x92 ; 0x3398
        0x00003308:    2110        .!      MOVS     r1,#0x10
        0x0000330a:    4822        "H      LDR      r0,[pc,#136] ; [0x3394] = 0x20003104
        0x0000330c:    6863        ch      LDR      r3,[r4,#4]
        0x0000330e:    f7fffb2b    ..+.    BL       __0snprintf$8 ; 0x2968
        0x00003312:    4820         H      LDR      r0,[pc,#128] ; [0x3394] = 0x20003104
        0x00003314:    f7ffff14    ....    BL       puts ; 0x3140
        0x00003318:    a222        ".      ADR      r2,{pc}+0x8c ; 0x33a4
        0x0000331a:    2110        .!      MOVS     r1,#0x10
        0x0000331c:    481d        .H      LDR      r0,[pc,#116] ; [0x3394] = 0x20003104
        0x0000331e:    68a3        .h      LDR      r3,[r4,#8]
        0x00003320:    f7fffb22    ..".    BL       __0snprintf$8 ; 0x2968
        0x00003324:    481b        .H      LDR      r0,[pc,#108] ; [0x3394] = 0x20003104
        0x00003326:    f7ffff0b    ....    BL       puts ; 0x3140
        0x0000332a:    a221        !.      ADR      r2,{pc}+0x86 ; 0x33b0
        0x0000332c:    2110        .!      MOVS     r1,#0x10
        0x0000332e:    4819        .H      LDR      r0,[pc,#100] ; [0x3394] = 0x20003104
        0x00003330:    68e3        .h      LDR      r3,[r4,#0xc]
        0x00003332:    f7fffb19    ....    BL       __0snprintf$8 ; 0x2968
        0x00003336:    4817        .H      LDR      r0,[pc,#92] ; [0x3394] = 0x20003104
        0x00003338:    f7ffff02    ....    BL       puts ; 0x3140
        0x0000333c:    a21f        ..      ADR      r2,{pc}+0x80 ; 0x33bc
        0x0000333e:    2110        .!      MOVS     r1,#0x10
        0x00003340:    4814        .H      LDR      r0,[pc,#80] ; [0x3394] = 0x20003104
        0x00003342:    6923        #i      LDR      r3,[r4,#0x10]
        0x00003344:    f7fffb10    ....    BL       __0snprintf$8 ; 0x2968
        0x00003348:    4812        .H      LDR      r0,[pc,#72] ; [0x3394] = 0x20003104
        0x0000334a:    f7fffef9    ....    BL       puts ; 0x3140
        0x0000334e:    a21e        ..      ADR      r2,{pc}+0x7a ; 0x33c8
        0x00003350:    2110        .!      MOVS     r1,#0x10
        0x00003352:    4810        .H      LDR      r0,[pc,#64] ; [0x3394] = 0x20003104
        0x00003354:    6963        ci      LDR      r3,[r4,#0x14]
        0x00003356:    f7fffb07    ....    BL       __0snprintf$8 ; 0x2968
        0x0000335a:    480e        .H      LDR      r0,[pc,#56] ; [0x3394] = 0x20003104
        0x0000335c:    f7fffef0    ....    BL       puts ; 0x3140
        0x00003360:    a21c        ..      ADR      r2,{pc}+0x74 ; 0x33d4
        0x00003362:    2110        .!      MOVS     r1,#0x10
        0x00003364:    480b        .H      LDR      r0,[pc,#44] ; [0x3394] = 0x20003104
        0x00003366:    69a3        .i      LDR      r3,[r4,#0x18]
        0x00003368:    f7fffafe    ....    BL       __0snprintf$8 ; 0x2968
        0x0000336c:    4809        .H      LDR      r0,[pc,#36] ; [0x3394] = 0x20003104
        0x0000336e:    f7fffee7    ....    BL       puts ; 0x3140
        0x00003372:    a21b        ..      ADR      r2,{pc}+0x6e ; 0x33e0
        0x00003374:    2110        .!      MOVS     r1,#0x10
        0x00003376:    4807        .H      LDR      r0,[pc,#28] ; [0x3394] = 0x20003104
        0x00003378:    69e3        .i      LDR      r3,[r4,#0x1c]
        0x0000337a:    f7fffaf5    ....    BL       __0snprintf$8 ; 0x2968
        0x0000337e:    4805        .H      LDR      r0,[pc,#20] ; [0x3394] = 0x20003104
        0x00003380:    f7fffede    ....    BL       puts ; 0x3140
        0x00003384:    bd10        ..      POP      {r4,pc}
    $d
        0x00003386:    0000        ..      DCW    0
        0x00003388:    20203072    r0      DCD    538980466
        0x0000338c:    7830203d    = 0x    DCD    2016419901
        0x00003390:    000a7825    %x..    DCD    686117
        0x00003394:    20003104    .1.     DCD    536883460
        0x00003398:    20203172    r1      DCD    538980722
        0x0000339c:    7830203d    = 0x    DCD    2016419901
        0x000033a0:    000a7825    %x..    DCD    686117
        0x000033a4:    20203272    r2      DCD    538980978
        0x000033a8:    7830203d    = 0x    DCD    2016419901
        0x000033ac:    000a7825    %x..    DCD    686117
        0x000033b0:    20203372    r3      DCD    538981234
        0x000033b4:    7830203d    = 0x    DCD    2016419901
        0x000033b8:    000a7825    %x..    DCD    686117
        0x000033bc:    20323172    r12     DCD    540160370
        0x000033c0:    7830203d    = 0x    DCD    2016419901
        0x000033c4:    000a7825    %x..    DCD    686117
        0x000033c8:    2020726c    lr      DCD    538997356
        0x000033cc:    7830203d    = 0x    DCD    2016419901
        0x000033d0:    000a7825    %x..    DCD    686117
        0x000033d4:    20206370    pc      DCD    538993520
        0x000033d8:    7830203d    = 0x    DCD    2016419901
        0x000033dc:    000a7825    %x..    DCD    686117
        0x000033e0:    20727370    psr     DCD    544371568
        0x000033e4:    7830203d    = 0x    DCD    2016419901
        0x000033e8:    000a7825    %x..    DCD    686117
    $d.realdata
    .constdata
    table_week
        0x000033ec:    06030300    ....    DCD    100860672
        0x000033f0:    02060401    ....    DCD    33948673
        0x000033f4:    05030005    ....    DCD    84082693
    mon_table
        0x000033f8:    1e1f1c1f    ....    DCD    505355295
        0x000033fc:    1f1f1e1f    ....    DCD    522133023
        0x00003400:    1f1e1f1e    ....    DCD    522067742
    __FUNCTION__
        0x00003404:    74666f53    Soft    DCD    1952870227
        0x00003408:    656d6954    Time    DCD    1701669204
        0x0000340c:    74655372    rSet    DCD    1952797554
        0x00003410:    6c657250    Prel    DCD    1818587728
        0x00003414:    56646f61    aodV    DCD    1449422689
        0x00003418:    65756c61    alue    DCD    1702194273
        0x0000341c:    00          .       DCB    0
    __FUNCTION__
        0x0000341d:    536f66      Sof     DCB    83,111,102
        0x00003420:    6d695474    tTim    DCD    1835619444
        0x00003424:    74537265    erSt    DCD    1951625829
        0x00003428:    00747261    art.    DCD    7631457
    __FUNCTION__
        0x0000342c:    74666f53    Soft    DCD    1952870227
        0x00003430:    656d6954    Time    DCD    1701669204
        0x00003434:    6f745372    rSto    DCD    1869894514
        0x00003438:    0070        p.      DCW    112
    __FUNCTION__
        0x0000343a:    6f53        So      DCW    28499
        0x0000343c:    69547466    ftTi    DCD    1767142502
        0x00003440:    5272656d    merR    DCD    1383228781
        0x00003444:    616f6c65    eloa    DCD    1634692197
        0x00003448:    0064        d.      DCW    100
    __FUNCTION__
        0x0000344a:    6f53        So      DCW    28499
        0x0000344c:    69547466    ftTi    DCD    1767142502
        0x00003450:    4372656d    merC    DCD    1131570541
        0x00003454:    6b636568    heck    DCD    1801676136
        0x00003458:    656d6954    Time    DCD    1701669204
        0x0000345c:    0074756f    out.    DCD    7632239
    .constdata
        0x00003460:    00000000    ....    DCD    0
        0x00003464:    00000004    ....    DCD    4
        0x00003468:    0000000c    ....    DCD    12
        0x0000346c:    00000024    $...    DCD    36
        0x00003470:    00000000    ....    DCD    0
        0x00003474:    00000020     ...    DCD    32
        0x00003478:    00000000    ....    DCD    0
        0x0000347c:    00000004    ....    DCD    4
        0x00003480:    0000002c    ,...    DCD    44
        0x00003484:    00000000    ....    DCD    0
        0x00003488:    00000000    ....    DCD    0
        0x0000348c:    00000004    ....    DCD    4
        0x00003490:    0000002c    ,...    DCD    44
        0x00003494:    00000000    ....    DCD    0
    .constdata
        0x00003498:    00b71b00    ....    DCD    12000000
        0x0000349c:    00008000    ....    DCD    32768
        0x000034a0:    00000000    ....    DCD    0
        0x000034a4:    00000000    ....    DCD    0
        0x000034a8:    00000000    ....    DCD    0
        0x000034ac:    00002710    .'..    DCD    10000
        0x000034b0:    00000000    ....    DCD    0
        0x000034b4:    01518000    ..Q.    DCD    22118400
    .constdata
        0x000034b8:    00b71b00    ....    DCD    12000000
        0x000034bc:    00000000    ....    DCD    0
        0x000034c0:    00000000    ....    DCD    0
        0x000034c4:    01518000    ..Q.    DCD    22118400
        0x000034c8:    00b71b00    ....    DCD    12000000
        0x000034cc:    00000000    ....    DCD    0
        0x000034d0:    00000000    ....    DCD    0
        0x000034d4:    01518000    ..Q.    DCD    22118400
        0x000034d8:    00b71b00    ....    DCD    12000000
        0x000034dc:    00000000    ....    DCD    0
        0x000034e0:    00000000    ....    DCD    0
        0x000034e4:    01518000    ..Q.    DCD    22118400
    Region$$Table$$Base
        0x000034e8:    00003508    .5..    DCD    13576
        0x000034ec:    20000000    ...     DCD    536870912
        0x000034f0:    000000c4    ....    DCD    196
        0x000034f4:    000029bc    .)..    DCD    10684
        0x000034f8:    000035cc    .5..    DCD    13772
        0x000034fc:    200000c4    ...     DCD    536871108
        0x00003500:    0000345c    \4..    DCD    13404
        0x00003504:    000029cc    .)..    DCD    10700
    Region$$Table$$Limit

** Section #2 'ER_RW' (SHT_PROGBITS) [SHF_ALLOC + SHF_WRITE]
    Size   : 196 bytes (alignment 4)
    Address: 0x20000000


** Section #3 'ER_ZI' (SHT_NOBITS) [SHF_ALLOC + SHF_WRITE]
    Size   : 13404 bytes (alignment 8)
    Address: 0x200000c4


** Section #4 '.debug_abbrev' (SHT_PROGBITS)
    Size   : 1476 bytes


** Section #5 '.debug_frame' (SHT_PROGBITS)
    Size   : 3708 bytes


** Section #6 '.debug_info' (SHT_PROGBITS)
    Size   : 65056 bytes


** Section #7 '.debug_line' (SHT_PROGBITS)
    Size   : 20316 bytes


** Section #8 '.debug_loc' (SHT_PROGBITS)
    Size   : 8980 bytes


** Section #9 '.debug_macinfo' (SHT_PROGBITS)
    Size   : 308364 bytes


** Section #10 '.debug_pubnames' (SHT_PROGBITS)
    Size   : 4288 bytes


** Section #11 '.symtab' (SHT_SYMTAB)
    Size   : 11312 bytes (alignment 4)
    String table #12 '.strtab'
    Last local symbol no. 470


** Section #12 '.strtab' (SHT_STRTAB)
    Size   : 8036 bytes


** Section #13 '.note' (SHT_NOTE)
    Size   : 28 bytes (alignment 4)


** Section #14 '.comment' (SHT_PROGBITS)
    Size   : 21432 bytes


** Section #15 '.shstrtab' (SHT_STRTAB)
    Size   : 156 bytes


